
bootrom-spl.elf:     file format elf64-littleriscv


Disassembly of section .text:

0000000001000000 <_start>:
 1000000:	0210011b          	addiw	sp,zero,33
 1000004:	01a11113          	slli	sp,sp,0x1a
 1000008:	00000297          	auipc	t0,0x0
 100000c:	01828293          	addi	t0,t0,24 # 1000020 <exception>
 1000010:	30529073          	csrw	mtvec,t0
 1000014:	0000d297          	auipc	t0,0xd
 1000018:	3b02e283          	lwu	t0,944(t0) # 100d3c4 <main>
 100001c:	3a80d0ef          	jal	ra,100d3c4 <main>

0000000001000020 <exception>:
 1000020:	10500073          	wfi
 1000024:	ffdff06f          	j	1000020 <exception>

0000000001000028 <entry_addr>:
 1000028:	0020                	addi	s0,sp,8
 100002a:	0100                	addi	s0,sp,128
 100002c:	0000                	unimp
	...

0000000001000030 <device_tree>:
 1000030:	0dd0                	addi	a2,sp,724
 1000032:	edfe                	sd	t6,216(sp)
 1000034:	0000                	unimp
 1000036:	2811                	addiw	a6,a6,4
 1000038:	0000                	unimp
 100003a:	3800                	fld	fs0,48(s0)
 100003c:	0000                	unimp
 100003e:	dc0d                	beqz	s0,ffff78 <_start-0x88>
 1000040:	0000                	unimp
 1000042:	2800                	fld	fs0,16(s0)
 1000044:	0000                	unimp
 1000046:	1100                	addi	s0,sp,160
 1000048:	0000                	unimp
 100004a:	1000                	addi	s0,sp,32
 100004c:	0000                	unimp
 100004e:	0000                	unimp
 1000050:	0000                	unimp
 1000052:	00004c03          	lbu	s8,0(zero) # 0 <_start-0x1000000>
 1000056:	a40d                	j	1000278 <device_tree+0x248>
	...
 1000068:	0000                	unimp
 100006a:	0100                	addi	s0,sp,128
 100006c:	0000                	unimp
 100006e:	0000                	unimp
 1000070:	0000                	unimp
 1000072:	0300                	addi	s0,sp,384
 1000074:	0000                	unimp
 1000076:	0400                	addi	s0,sp,512
 1000078:	0000                	unimp
 100007a:	0000                	unimp
 100007c:	0000                	unimp
 100007e:	0200                	addi	s0,sp,256
 1000080:	0000                	unimp
 1000082:	0300                	addi	s0,sp,384
 1000084:	0000                	unimp
 1000086:	0400                	addi	s0,sp,512
 1000088:	0000                	unimp
 100008a:	0f00                	addi	s0,sp,912
 100008c:	0000                	unimp
 100008e:	0200                	addi	s0,sp,256
 1000090:	0000                	unimp
 1000092:	0300                	addi	s0,sp,384
 1000094:	0000                	unimp
 1000096:	0f00                	addi	s0,sp,912
 1000098:	0000                	unimp
 100009a:	1b00                	addi	s0,sp,432
 100009c:	7465                	lui	s0,0xffff9
 100009e:	2c68                	fld	fa0,216(s0)
 10000a0:	6163636f          	jal	t1,10366b6 <__spl_src_start+0x2910e>
 10000a4:	796d                	lui	s2,0xffffb
 10000a6:	642d                	lui	s0,0xb
 10000a8:	7665                	lui	a2,0xffff9
 10000aa:	0000                	unimp
 10000ac:	0000                	unimp
 10000ae:	0300                	addi	s0,sp,384
 10000b0:	0000                	unimp
 10000b2:	0b00                	addi	s0,sp,400
 10000b4:	0000                	unimp
 10000b6:	2600                	fld	fs0,8(a2)
 10000b8:	7465                	lui	s0,0xffff9
 10000ba:	2c68                	fld	fa0,216(s0)
 10000bc:	6163636f          	jal	t1,10366d2 <__spl_src_start+0x2912a>
 10000c0:	796d                	lui	s2,0xffffb
 10000c2:	0000                	unimp
 10000c4:	0000                	unimp
 10000c6:	0100                	addi	s0,sp,128
 10000c8:	666e6f63          	bltu	t3,t1,1000746 <device_tree+0x716>
 10000cc:	6769                	lui	a4,0x1a
 10000ce:	0000                	unimp
 10000d0:	0000                	unimp
 10000d2:	0300                	addi	s0,sp,384
 10000d4:	0000                	unimp
 10000d6:	0400                	addi	s0,sp,512
 10000d8:	0000                	unimp
 10000da:	2c00                	fld	fs0,24(s0)
 10000dc:	0006                	c.slli	zero,0x1
 10000de:	0000                	unimp
 10000e0:	0000                	unimp
 10000e2:	0200                	addi	s0,sp,256
 10000e4:	0000                	unimp
 10000e6:	0100                	addi	s0,sp,128
 10000e8:	736f6863          	bltu	t5,s6,1000818 <device_tree+0x7e8>
 10000ec:	6e65                	lui	t3,0x19
 10000ee:	0000                	unimp
 10000f0:	0000                	unimp
 10000f2:	0300                	addi	s0,sp,384
 10000f4:	0000                	unimp
 10000f6:	1b00                	addi	s0,sp,432
 10000f8:	0000                	unimp
 10000fa:	4600                	lw	s0,8(a2)
 10000fc:	636f732f          	0x636f732f
 1000100:	7265732f          	0x7265732f
 1000104:	6169                	addi	sp,sp,208
 1000106:	406c                	lw	a1,68(s0)
 1000108:	3032                	fld	ft0,296(sp)
 100010a:	3230                	fld	fa2,96(a2)
 100010c:	3030                	fld	fa2,96(s0)
 100010e:	3a30                	fld	fa2,112(a2)
 1000110:	3131                	addiw	sp,sp,-20
 1000112:	3235                	addiw	tp,tp,-19
 1000114:	3030                	fld	fa2,96(s0)
 1000116:	0000                	unimp
 1000118:	0000                	unimp
 100011a:	0200                	addi	s0,sp,256
 100011c:	0000                	unimp
 100011e:	0100                	addi	s0,sp,128
 1000120:	656d                	lui	a0,0x1b
 1000122:	6f6d                	lui	t5,0x1b
 1000124:	7972                	ld	s2,312(sp)
 1000126:	3840                	fld	fs0,176(s0)
 1000128:	3030                	fld	fa2,96(s0)
 100012a:	3030                	fld	fa2,96(s0)
 100012c:	3030                	fld	fa2,96(s0)
 100012e:	0030                	addi	a2,sp,8
 1000130:	0000                	unimp
 1000132:	0300                	addi	s0,sp,384
 1000134:	0000                	unimp
 1000136:	0700                	addi	s0,sp,896
 1000138:	0000                	unimp
 100013a:	5200                	lw	s0,32(a2)
 100013c:	656d                	lui	a0,0x1b
 100013e:	6f6d                	lui	t5,0x1b
 1000140:	7972                	ld	s2,312(sp)
 1000142:	0000                	unimp
 1000144:	0000                	unimp
 1000146:	0300                	addi	s0,sp,384
 1000148:	0000                	unimp
 100014a:	1000                	addi	s0,sp,32
 100014c:	0000                	unimp
 100014e:	5e00                	lw	s0,56(a2)
 1000150:	0000                	unimp
 1000152:	0000                	unimp
 1000154:	0080                	addi	s0,sp,64
 1000156:	0000                	unimp
 1000158:	0000                	unimp
 100015a:	0000                	unimp
 100015c:	0080                	addi	s0,sp,64
 100015e:	0000                	unimp
 1000160:	0000                	unimp
 1000162:	0200                	addi	s0,sp,256
 1000164:	0000                	unimp
 1000166:	0100                	addi	s0,sp,128
 1000168:	73757063          	bgeu	a0,s7,1000888 <device_tree+0x858>
 100016c:	0000                	unimp
 100016e:	0000                	unimp
 1000170:	0000                	unimp
 1000172:	0300                	addi	s0,sp,384
 1000174:	0000                	unimp
 1000176:	0400                	addi	s0,sp,512
 1000178:	0000                	unimp
 100017a:	0000                	unimp
 100017c:	0000                	unimp
 100017e:	0100                	addi	s0,sp,128
 1000180:	0000                	unimp
 1000182:	0300                	addi	s0,sp,384
 1000184:	0000                	unimp
 1000186:	0400                	addi	s0,sp,512
 1000188:	0000                	unimp
 100018a:	0f00                	addi	s0,sp,912
 100018c:	0000                	unimp
 100018e:	0000                	unimp
 1000190:	0000                	unimp
 1000192:	0300                	addi	s0,sp,384
 1000194:	0000                	unimp
 1000196:	0400                	addi	s0,sp,512
 1000198:	0000                	unimp
 100019a:	6200                	ld	s0,0(a2)
 100019c:	be00                	fsd	fs0,56(a2)
 100019e:	20bc                	fld	fa5,64(s1)
 10001a0:	0000                	unimp
 10001a2:	0100                	addi	s0,sp,128
 10001a4:	40757063          	bgeu	a0,t2,10005a4 <device_tree+0x574>
 10001a8:	0030                	addi	a2,sp,8
 10001aa:	0000                	unimp
 10001ac:	0000                	unimp
 10001ae:	0300                	addi	s0,sp,384
 10001b0:	0000                	unimp
 10001b2:	0400                	addi	s0,sp,512
 10001b4:	0000                	unimp
 10001b6:	5200                	lw	s0,32(a2)
 10001b8:	00757063          	bgeu	a0,t2,10001b8 <device_tree+0x188>
 10001bc:	0000                	unimp
 10001be:	0300                	addi	s0,sp,384
 10001c0:	0000                	unimp
 10001c2:	0500                	addi	s0,sp,640
 10001c4:	0000                	unimp
 10001c6:	7500                	ld	s0,40(a0)
 10001c8:	79616b6f          	jal	s6,101695e <__spl_src_start+0x93b6>
 10001cc:	0000                	unimp
 10001ce:	0000                	unimp
 10001d0:	0000                	unimp
 10001d2:	0300                	addi	s0,sp,384
 10001d4:	0000                	unimp
 10001d6:	1100                	addi	s0,sp,160
 10001d8:	0000                	unimp
 10001da:	1b00                	addi	s0,sp,432
 10001dc:	7465                	lui	s0,0xffff9
 10001de:	2c68                	fld	fa0,216(s0)
 10001e0:	7261                	lui	tp,0xffff8
 10001e2:	6169                	addi	sp,sp,208
 10001e4:	656e                	ld	a0,216(sp)
 10001e6:	7200                	ld	s0,32(a2)
 10001e8:	7369                	lui	t1,0xffffa
 10001ea:	00007663          	bgeu	zero,zero,10001f6 <device_tree+0x1c6>
 10001ee:	0000                	unimp
 10001f0:	0000                	unimp
 10001f2:	0300                	addi	s0,sp,384
 10001f4:	0000                	unimp
 10001f6:	0400                	addi	s0,sp,512
 10001f8:	0000                	unimp
 10001fa:	7c00                	ld	s0,56(s0)
 10001fc:	fa02                	sd	zero,304(sp)
 10001fe:	80f0                	0x80f0
 1000200:	0000                	unimp
 1000202:	0300                	addi	s0,sp,384
 1000204:	0000                	unimp
 1000206:	0b00                	addi	s0,sp,400
 1000208:	0000                	unimp
 100020a:	8c00                	0x8c00
 100020c:	7672                	ld	a2,312(sp)
 100020e:	3436                	fld	fs0,360(sp)
 1000210:	6966                	ld	s2,88(sp)
 1000212:	616d                	addi	sp,sp,240
 1000214:	6466                	ld	s0,88(sp)
 1000216:	0000                	unimp
 1000218:	0000                	unimp
 100021a:	0300                	addi	s0,sp,384
 100021c:	0000                	unimp
 100021e:	0b00                	addi	s0,sp,400
 1000220:	0000                	unimp
 1000222:	9600                	0x9600
 1000224:	6972                	ld	s2,280(sp)
 1000226:	2c766373          	csrrsi	t1,0x2c7,12
 100022a:	39337673          	csrrci	a2,0x393,6
 100022e:	0000                	unimp
 1000230:	0000                	unimp
 1000232:	0300                	addi	s0,sp,384
 1000234:	0000                	unimp
 1000236:	0000                	unimp
 1000238:	0000                	unimp
 100023a:	9f00                	0x9f00
 100023c:	0000                	unimp
 100023e:	0300                	addi	s0,sp,384
 1000240:	0000                	unimp
 1000242:	0400                	addi	s0,sp,512
 1000244:	0000                	unimp
 1000246:	5e00                	lw	s0,56(a2)
 1000248:	0000                	unimp
 100024a:	0000                	unimp
 100024c:	0000                	unimp
 100024e:	0100                	addi	s0,sp,128
 1000250:	6e69                	lui	t3,0x1a
 1000252:	6574                	ld	a3,200(a0)
 1000254:	7272                	ld	tp,312(sp)
 1000256:	7075                	c.lui	zero,0xffffd
 1000258:	2d74                	fld	fa3,216(a0)
 100025a:	746e6f63          	bltu	t3,t1,10009b8 <device_tree+0x988>
 100025e:	6f72                	ld	t5,280(sp)
 1000260:	6c6c                	ld	a1,216(s0)
 1000262:	7265                	lui	tp,0xffff9
 1000264:	0000                	unimp
 1000266:	0000                	unimp
 1000268:	0000                	unimp
 100026a:	0300                	addi	s0,sp,384
 100026c:	0000                	unimp
 100026e:	0400                	addi	s0,sp,512
 1000270:	0000                	unimp
 1000272:	a900                	fsd	fs0,16(a0)
 1000274:	0000                	unimp
 1000276:	0100                	addi	s0,sp,128
 1000278:	0000                	unimp
 100027a:	0300                	addi	s0,sp,384
 100027c:	0000                	unimp
 100027e:	0400                	addi	s0,sp,512
 1000280:	0000                	unimp
 1000282:	0000                	unimp
 1000284:	0000                	unimp
 1000286:	0100                	addi	s0,sp,128
 1000288:	0000                	unimp
 100028a:	0300                	addi	s0,sp,384
 100028c:	0000                	unimp
 100028e:	0000                	unimp
 1000290:	0000                	unimp
 1000292:	ba00                	fsd	fs0,48(a2)
 1000294:	0000                	unimp
 1000296:	0300                	addi	s0,sp,384
 1000298:	0000                	unimp
 100029a:	0f00                	addi	s0,sp,912
 100029c:	0000                	unimp
 100029e:	1b00                	addi	s0,sp,432
 10002a0:	6972                	ld	s2,280(sp)
 10002a2:	2c766373          	csrrsi	t1,0x2c7,12
 10002a6:	2d757063          	bgeu	a0,s7,1000566 <device_tree+0x536>
 10002aa:	6e69                	lui	t3,0x1a
 10002ac:	6374                	ld	a3,192(a4)
 10002ae:	0000                	unimp
 10002b0:	0000                	unimp
 10002b2:	0300                	addi	s0,sp,384
 10002b4:	0000                	unimp
 10002b6:	0400                	addi	s0,sp,512
 10002b8:	0000                	unimp
 10002ba:	cf00                	sw	s0,24(a4)
 10002bc:	0000                	unimp
 10002be:	0300                	addi	s0,sp,384
 10002c0:	0000                	unimp
 10002c2:	0200                	addi	s0,sp,256
 10002c4:	0000                	unimp
 10002c6:	0200                	addi	s0,sp,256
 10002c8:	0000                	unimp
 10002ca:	0200                	addi	s0,sp,256
 10002cc:	0000                	unimp
 10002ce:	0100                	addi	s0,sp,128
 10002d0:	6976                	ld	s2,344(sp)
 10002d2:	7472                	ld	s0,312(sp)
 10002d4:	355f 6d30 7a68      	0x7a686d30355f
 10002da:	0000                	unimp
 10002dc:	0000                	unimp
 10002de:	0300                	addi	s0,sp,384
 10002e0:	0000                	unimp
 10002e2:	0400                	addi	s0,sp,512
 10002e4:	0000                	unimp
 10002e6:	d700                	sw	s0,40(a4)
 10002e8:	0000                	unimp
 10002ea:	0000                	unimp
 10002ec:	0000                	unimp
 10002ee:	0300                	addi	s0,sp,384
 10002f0:	0000                	unimp
 10002f2:	0c00                	addi	s0,sp,528
 10002f4:	0000                	unimp
 10002f6:	1b00                	addi	s0,sp,432
 10002f8:	6966                	ld	s2,88(sp)
 10002fa:	6578                	ld	a4,200(a0)
 10002fc:	2d64                	fld	fs1,216(a0)
 10002fe:	636f6c63          	bltu	t5,s6,1000936 <device_tree+0x906>
 1000302:	0000006b          	0x6b
 1000306:	0300                	addi	s0,sp,384
 1000308:	0000                	unimp
 100030a:	0400                	addi	s0,sp,512
 100030c:	0000                	unimp
 100030e:	7c00                	ld	s0,56(s0)
 1000310:	fa02                	sd	zero,304(sp)
 1000312:	80f0                	0x80f0
 1000314:	0000                	unimp
 1000316:	0300                	addi	s0,sp,384
 1000318:	0000                	unimp
 100031a:	0400                	addi	s0,sp,512
 100031c:	0000                	unimp
 100031e:	cf00                	sw	s0,24(a4)
 1000320:	0000                	unimp
 1000322:	0200                	addi	s0,sp,256
 1000324:	0000                	unimp
 1000326:	0200                	addi	s0,sp,256
 1000328:	0000                	unimp
 100032a:	0100                	addi	s0,sp,128
 100032c:	00636f73          	csrrsi	t5,0x6,6
 1000330:	0000                	unimp
 1000332:	0300                	addi	s0,sp,384
 1000334:	0000                	unimp
 1000336:	0400                	addi	s0,sp,512
 1000338:	0000                	unimp
 100033a:	0000                	unimp
 100033c:	0000                	unimp
 100033e:	0200                	addi	s0,sp,256
 1000340:	0000                	unimp
 1000342:	0300                	addi	s0,sp,384
 1000344:	0000                	unimp
 1000346:	0400                	addi	s0,sp,512
 1000348:	0000                	unimp
 100034a:	0f00                	addi	s0,sp,912
 100034c:	0000                	unimp
 100034e:	0200                	addi	s0,sp,256
 1000350:	0000                	unimp
 1000352:	0300                	addi	s0,sp,384
 1000354:	0000                	unimp
 1000356:	0b00                	addi	s0,sp,400
 1000358:	0000                	unimp
 100035a:	1b00                	addi	s0,sp,432
 100035c:	706d6973          	csrrsi	s2,0x706,26
 1000360:	656c                	ld	a1,200(a0)
 1000362:	622d                	lui	tp,0xb
 1000364:	7375                	lui	t1,0xffffd
 1000366:	0000                	unimp
 1000368:	0000                	unimp
 100036a:	0300                	addi	s0,sp,384
 100036c:	0000                	unimp
 100036e:	0000                	unimp
 1000370:	0000                	unimp
 1000372:	e400                	sd	s0,8(s0)
 1000374:	0000                	unimp
 1000376:	0100                	addi	s0,sp,128
 1000378:	6564                	ld	s1,200(a0)
 100037a:	7562                	ld	a0,56(sp)
 100037c:	00304067          	0x304067
 1000380:	0000                	unimp
 1000382:	0300                	addi	s0,sp,384
 1000384:	0000                	unimp
 1000386:	1000                	addi	s0,sp,32
 1000388:	0000                	unimp
 100038a:	1b00                	addi	s0,sp,432
 100038c:	6972                	ld	s2,280(sp)
 100038e:	2c766373          	csrrsi	t1,0x2c7,12
 1000392:	6564                	ld	s1,200(a0)
 1000394:	7562                	ld	a0,56(sp)
 1000396:	31302d67          	0x31302d67
 100039a:	00000033          	add	zero,zero,zero
 100039e:	0300                	addi	s0,sp,384
 10003a0:	0000                	unimp
 10003a2:	0800                	addi	s0,sp,16
 10003a4:	0000                	unimp
 10003a6:	eb00                	sd	s0,16(a4)
 10003a8:	746e6f63          	bltu	t3,t1,1000b06 <device_tree+0xad6>
 10003ac:	6f72                	ld	t5,280(sp)
 10003ae:	006c                	addi	a1,sp,12
 10003b0:	0000                	unimp
 10003b2:	0300                	addi	s0,sp,384
 10003b4:	0000                	unimp
 10003b6:	1000                	addi	s0,sp,32
 10003b8:	0000                	unimp
 10003ba:	5e00                	lw	s0,56(a2)
	...
 10003c8:	0000                	unimp
 10003ca:	0010                	0x10
 10003cc:	0000                	unimp
 10003ce:	0200                	addi	s0,sp,256
 10003d0:	0000                	unimp
 10003d2:	0100                	addi	s0,sp,128
 10003d4:	69726573          	csrrsi	a0,0x697,4
 10003d8:	6c61                	lui	s8,0x18
 10003da:	3240                	fld	fs0,160(a2)
 10003dc:	3030                	fld	fa2,96(s0)
 10003de:	3032                	fld	ft0,296(sp)
 10003e0:	3030                	fld	fa2,96(s0)
 10003e2:	0000                	unimp
 10003e4:	0000                	unimp
 10003e6:	0300                	addi	s0,sp,384
 10003e8:	0000                	unimp
 10003ea:	0900                	addi	s0,sp,144
 10003ec:	0000                	unimp
 10003ee:	1b00                	addi	s0,sp,432
 10003f0:	736e                	ld	t1,248(sp)
 10003f2:	3631                	addiw	a2,a2,-20
 10003f4:	3535                	addiw	a0,a0,-19
 10003f6:	6130                	ld	a2,64(a0)
 10003f8:	0000                	unimp
 10003fa:	0000                	unimp
 10003fc:	0000                	unimp
 10003fe:	0300                	addi	s0,sp,384
 1000400:	0000                	unimp
 1000402:	1000                	addi	s0,sp,32
 1000404:	0000                	unimp
 1000406:	5e00                	lw	s0,56(a2)
 1000408:	0000                	unimp
 100040a:	0000                	unimp
 100040c:	0002                	c.slli64	zero
 100040e:	0020                	addi	s0,sp,8
 1000410:	0000                	unimp
 1000412:	0000                	unimp
 1000414:	0000                	unimp
 1000416:	0010                	0x10
 1000418:	0000                	unimp
 100041a:	0300                	addi	s0,sp,384
 100041c:	0000                	unimp
 100041e:	0400                	addi	s0,sp,512
 1000420:	0000                	unimp
 1000422:	7c00                	ld	s0,56(s0)
 1000424:	fa02                	sd	zero,304(sp)
 1000426:	80f0                	0x80f0
 1000428:	0000                	unimp
 100042a:	0300                	addi	s0,sp,384
 100042c:	0000                	unimp
 100042e:	0400                	addi	s0,sp,512
 1000430:	0000                	unimp
 1000432:	f500                	sd	s0,40(a0)
 1000434:	0100                	addi	s0,sp,128
 1000436:	00c2                	slli	ra,ra,0x10
 1000438:	0000                	unimp
 100043a:	0300                	addi	s0,sp,384
 100043c:	0000                	unimp
 100043e:	0400                	addi	s0,sp,512
 1000440:	0000                	unimp
 1000442:	0301                	addi	t1,t1,0
 1000444:	0000                	unimp
 1000446:	0100                	addi	s0,sp,128
 1000448:	0000                	unimp
 100044a:	0300                	addi	s0,sp,384
 100044c:	0000                	unimp
 100044e:	0400                	addi	s0,sp,512
 1000450:	0000                	unimp
 1000452:	1401                	addi	s0,s0,-32
 1000454:	0000                	unimp
 1000456:	2300                	fld	fs0,0(a4)
 1000458:	0000                	unimp
 100045a:	0300                	addi	s0,sp,384
 100045c:	0000                	unimp
 100045e:	0400                	addi	s0,sp,512
 1000460:	0000                	unimp
 1000462:	1f01                	addi	t5,t5,-32
 1000464:	0000                	unimp
 1000466:	0000                	unimp
 1000468:	0000                	unimp
 100046a:	0300                	addi	s0,sp,384
 100046c:	0000                	unimp
 100046e:	0400                	addi	s0,sp,512
 1000470:	0000                	unimp
 1000472:	2a01                	sext.w	s4,s4
 1000474:	0000                	unimp
 1000476:	0200                	addi	s0,sp,256
 1000478:	0000                	unimp
 100047a:	0300                	addi	s0,sp,384
 100047c:	0000                	unimp
 100047e:	0400                	addi	s0,sp,512
 1000480:	0000                	unimp
 1000482:	3401                	addiw	s0,s0,-32
 1000484:	0000                	unimp
 1000486:	0400                	addi	s0,sp,512
 1000488:	0000                	unimp
 100048a:	0200                	addi	s0,sp,256
 100048c:	0000                	unimp
 100048e:	0100                	addi	s0,sp,128
 1000490:	6974                	ld	a3,208(a0)
 1000492:	656d                	lui	a0,0x1b
 1000494:	4072                	0x4072
 1000496:	3032                	fld	ft0,296(sp)
 1000498:	3630                	fld	fa2,104(a2)
 100049a:	3030                	fld	fa2,96(s0)
 100049c:	0030                	addi	a2,sp,8
 100049e:	0000                	unimp
 10004a0:	0000                	unimp
 10004a2:	0300                	addi	s0,sp,384
 10004a4:	0000                	unimp
 10004a6:	0f00                	addi	s0,sp,912
 10004a8:	0000                	unimp
 10004aa:	1b00                	addi	s0,sp,432
 10004ac:	7570                	ld	a2,232(a0)
 10004ae:	706c                	ld	a1,224(s0)
 10004b0:	612c                	ld	a1,64(a0)
 10004b2:	6270                	ld	a2,192(a2)
 10004b4:	745f 6d69 7265      	0x72656d69745f
 10004ba:	0000                	unimp
 10004bc:	0000                	unimp
 10004be:	0300                	addi	s0,sp,384
 10004c0:	0000                	unimp
 10004c2:	0400                	addi	s0,sp,512
 10004c4:	0000                	unimp
 10004c6:	0301                	addi	t1,t1,0
 10004c8:	0000                	unimp
 10004ca:	0100                	addi	s0,sp,128
 10004cc:	0000                	unimp
 10004ce:	0300                	addi	s0,sp,384
 10004d0:	0000                	unimp
 10004d2:	1000                	addi	s0,sp,32
 10004d4:	0000                	unimp
 10004d6:	1401                	addi	s0,s0,-32
 10004d8:	0000                	unimp
 10004da:	4400                	lw	s0,8(s0)
 10004dc:	0000                	unimp
 10004de:	4500                	lw	s0,8(a0)
 10004e0:	0000                	unimp
 10004e2:	4600                	lw	s0,8(a2)
 10004e4:	0000                	unimp
 10004e6:	4700                	lw	s0,8(a4)
 10004e8:	0000                	unimp
 10004ea:	0300                	addi	s0,sp,384
 10004ec:	0000                	unimp
 10004ee:	1000                	addi	s0,sp,32
 10004f0:	0000                	unimp
 10004f2:	5e00                	lw	s0,56(a2)
 10004f4:	0000                	unimp
 10004f6:	0000                	unimp
 10004f8:	0002                	c.slli64	zero
 10004fa:	0060                	addi	s0,sp,12
 10004fc:	0000                	unimp
 10004fe:	0000                	unimp
 1000500:	0000                	unimp
 1000502:	0010                	0x10
 1000504:	0000                	unimp
 1000506:	0300                	addi	s0,sp,384
 1000508:	0000                	unimp
 100050a:	0800                	addi	s0,sp,16
 100050c:	0000                	unimp
 100050e:	eb00                	sd	s0,16(a4)
 1000510:	746e6f63          	bltu	t3,t1,1000c6e <device_tree+0xc3e>
 1000514:	6f72                	ld	t5,280(sp)
 1000516:	006c                	addi	a1,sp,12
 1000518:	0000                	unimp
 100051a:	0200                	addi	s0,sp,256
 100051c:	0000                	unimp
 100051e:	0100                	addi	s0,sp,128
 1000520:	40697073          	csrci	0x406,18
 1000524:	6334                	ld	a3,64(a4)
 1000526:	3030                	fld	fa2,96(s0)
 1000528:	3030                	fld	fa2,96(s0)
 100052a:	3030                	fld	fa2,96(s0)
 100052c:	0000                	unimp
 100052e:	0000                	unimp
 1000530:	0000                	unimp
 1000532:	0300                	addi	s0,sp,384
 1000534:	0000                	unimp
 1000536:	2a00                	fld	fs0,16(a2)
 1000538:	0000                	unimp
 100053a:	1b00                	addi	s0,sp,432
 100053c:	6c78                	ld	a4,216(s0)
 100053e:	786e                	ld	a6,248(sp)
 1000540:	612c                	ld	a1,64(a0)
 1000542:	6978                	ld	a4,208(a0)
 1000544:	712d                	addi	sp,sp,-288
 1000546:	6175                	addi	sp,sp,368
 1000548:	2d64                	fld	fs1,216(a0)
 100054a:	2d697073          	csrci	0x2d6,18
 100054e:	00322e33          	slt	t3,tp,gp
 1000552:	6c78                	ld	a4,216(s0)
 1000554:	786e                	ld	a6,248(sp)
 1000556:	782c                	ld	a1,112(s0)
 1000558:	7370                	ld	a2,224(a4)
 100055a:	732d                	lui	t1,0xfffeb
 100055c:	6970                	ld	a2,208(a0)
 100055e:	322d                	addiw	tp,tp,-21
 1000560:	302e                	fld	ft0,232(sp)
 1000562:	2e30                	fld	fa2,88(a2)
 1000564:	0061                	c.nop	24
 1000566:	0000                	unimp
 1000568:	0000                	unimp
 100056a:	0300                	addi	s0,sp,384
 100056c:	0000                	unimp
 100056e:	0800                	addi	s0,sp,16
 1000570:	0000                	unimp
 1000572:	4101                	li	sp,0
 1000574:	0000                	unimp
 1000576:	0100                	addi	s0,sp,128
 1000578:	0000                	unimp
 100057a:	0200                	addi	s0,sp,256
 100057c:	0000                	unimp
 100057e:	0300                	addi	s0,sp,384
 1000580:	0000                	unimp
 1000582:	0400                	addi	s0,sp,512
 1000584:	0000                	unimp
 1000586:	5501                	li	a0,-32
 1000588:	0000                	unimp
 100058a:	0200                	addi	s0,sp,256
 100058c:	0000                	unimp
 100058e:	0300                	addi	s0,sp,384
 1000590:	0000                	unimp
 1000592:	1000                	addi	s0,sp,32
 1000594:	0000                	unimp
 1000596:	5e00                	lw	s0,56(a2)
 1000598:	0000                	unimp
 100059a:	0000                	unimp
 100059c:	004c                	addi	a1,sp,4
 100059e:	0000                	unimp
 10005a0:	0000                	unimp
 10005a2:	0000                	unimp
 10005a4:	0100                	addi	s0,sp,128
 10005a6:	0000                	unimp
 10005a8:	0000                	unimp
 10005aa:	0300                	addi	s0,sp,384
 10005ac:	0000                	unimp
 10005ae:	0400                	addi	s0,sp,512
 10005b0:	0000                	unimp
 10005b2:	5c01                	li	s8,-32
 10005b4:	0000                	unimp
 10005b6:	0100                	addi	s0,sp,128
 10005b8:	0000                	unimp
 10005ba:	0300                	addi	s0,sp,384
 10005bc:	0000                	unimp
 10005be:	0400                	addi	s0,sp,512
 10005c0:	0000                	unimp
 10005c2:	6d01                	0x6d01
 10005c4:	0000                	unimp
 10005c6:	0800                	addi	s0,sp,16
 10005c8:	0000                	unimp
 10005ca:	0300                	addi	s0,sp,384
 10005cc:	0000                	unimp
 10005ce:	0400                	addi	s0,sp,512
 10005d0:	0000                	unimp
 10005d2:	8401                	c.srai64	s0
 10005d4:	0000                	unimp
 10005d6:	1000                	addi	s0,sp,32
 10005d8:	0000                	unimp
 10005da:	0300                	addi	s0,sp,384
 10005dc:	0000                	unimp
 10005de:	0400                	addi	s0,sp,512
 10005e0:	0000                	unimp
 10005e2:	0000                	unimp
 10005e4:	0000                	unimp
 10005e6:	0100                	addi	s0,sp,128
 10005e8:	0000                	unimp
 10005ea:	0300                	addi	s0,sp,384
 10005ec:	0000                	unimp
 10005ee:	0400                	addi	s0,sp,512
 10005f0:	0000                	unimp
 10005f2:	0f00                	addi	s0,sp,912
 10005f4:	0000                	unimp
 10005f6:	0000                	unimp
 10005f8:	0000                	unimp
 10005fa:	0100                	addi	s0,sp,128
 10005fc:	6f6e                	ld	t5,216(sp)
 10005fe:	4072                	0x4072
 1000600:	0030                	addi	a2,sp,8
 1000602:	0000                	unimp
 1000604:	0000                	unimp
 1000606:	0300                	addi	s0,sp,384
 1000608:	0000                	unimp
 100060a:	0400                	addi	s0,sp,512
 100060c:	0000                	unimp
 100060e:	0000                	unimp
 1000610:	0000                	unimp
 1000612:	0100                	addi	s0,sp,128
 1000614:	0000                	unimp
 1000616:	0300                	addi	s0,sp,384
 1000618:	0000                	unimp
 100061a:	0400                	addi	s0,sp,512
 100061c:	0000                	unimp
 100061e:	0f00                	addi	s0,sp,912
 1000620:	0000                	unimp
 1000622:	0100                	addi	s0,sp,128
 1000624:	0000                	unimp
 1000626:	0300                	addi	s0,sp,384
 1000628:	0000                	unimp
 100062a:	1100                	addi	s0,sp,160
 100062c:	0000                	unimp
 100062e:	1b00                	addi	s0,sp,432
 1000630:	696d                	lui	s2,0x1b
 1000632:	6e6f7263          	bgeu	t5,t1,1000d16 <device_tree+0xce6>
 1000636:	6d2c                	ld	a1,88(a0)
 1000638:	3274                	fld	fa3,224(a2)
 100063a:	7135                	addi	sp,sp,-160
 100063c:	3075                	0x3075
 100063e:	6732                	ld	a4,264(sp)
 1000640:	0000                	unimp
 1000642:	0000                	unimp
 1000644:	0000                	unimp
 1000646:	0300                	addi	s0,sp,384
 1000648:	0000                	unimp
 100064a:	0800                	addi	s0,sp,16
 100064c:	0000                	unimp
 100064e:	5e00                	lw	s0,56(a2)
	...
 1000658:	0000                	unimp
 100065a:	0300                	addi	s0,sp,384
 100065c:	0000                	unimp
 100065e:	0400                	addi	s0,sp,512
 1000660:	0000                	unimp
 1000662:	8e01                	sub	a2,a2,s0
 1000664:	fa02                	sd	zero,304(sp)
 1000666:	80f0                	0x80f0
 1000668:	0000                	unimp
 100066a:	0300                	addi	s0,sp,384
 100066c:	0000                	unimp
 100066e:	0400                	addi	s0,sp,512
 1000670:	0000                	unimp
 1000672:	a001                	j	1000672 <device_tree+0x642>
 1000674:	0000                	unimp
 1000676:	0400                	addi	s0,sp,512
 1000678:	0000                	unimp
 100067a:	0300                	addi	s0,sp,384
 100067c:	0000                	unimp
 100067e:	0400                	addi	s0,sp,512
 1000680:	0000                	unimp
 1000682:	b101                	j	1000282 <device_tree+0x252>
 1000684:	0000                	unimp
 1000686:	0400                	addi	s0,sp,512
 1000688:	0000                	unimp
 100068a:	0300                	addi	s0,sp,384
 100068c:	0000                	unimp
 100068e:	0000                	unimp
 1000690:	0000                	unimp
 1000692:	c201                	beqz	a2,1000692 <device_tree+0x662>
 1000694:	0000                	unimp
 1000696:	0100                	addi	s0,sp,128
 1000698:	6170                	ld	a2,192(a0)
 100069a:	7472                	ld	s0,312(sp)
 100069c:	7469                	lui	s0,0xffffa
 100069e:	6f69                	lui	t5,0x1a
 10006a0:	406e                	0x406e
 10006a2:	0030                	addi	a2,sp,8
 10006a4:	0000                	unimp
 10006a6:	0300                	addi	s0,sp,384
 10006a8:	0000                	unimp
 10006aa:	0a00                	addi	s0,sp,272
 10006ac:	0000                	unimp
 10006ae:	d101                	beqz	a0,10005ae <device_tree+0x57e>
 10006b0:	6962                	ld	s2,24(sp)
 10006b2:	7374                	ld	a3,224(a4)
 10006b4:	7274                	ld	a3,224(a2)
 10006b6:	6165                	addi	sp,sp,112
 10006b8:	006d                	c.nop	27
 10006ba:	0000                	unimp
 10006bc:	0000                	unimp
 10006be:	0300                	addi	s0,sp,384
 10006c0:	0000                	unimp
 10006c2:	0800                	addi	s0,sp,16
 10006c4:	0000                	unimp
 10006c6:	5e00                	lw	s0,56(a2)
 10006c8:	0000                	unimp
 10006ca:	0000                	unimp
 10006cc:	0006                	c.slli	zero,0x1
 10006ce:	0000                	unimp
 10006d0:	0000                	unimp
 10006d2:	0300                	addi	s0,sp,384
 10006d4:	0000                	unimp
 10006d6:	0000                	unimp
 10006d8:	0000                	unimp
 10006da:	d701                	beqz	a4,10005e2 <device_tree+0x5b2>
 10006dc:	0000                	unimp
 10006de:	0200                	addi	s0,sp,256
 10006e0:	0000                	unimp
 10006e2:	0100                	addi	s0,sp,128
 10006e4:	6170                	ld	a2,192(a0)
 10006e6:	7472                	ld	s0,312(sp)
 10006e8:	7469                	lui	s0,0xffffa
 10006ea:	6f69                	lui	t5,0x1a
 10006ec:	406e                	0x406e
 10006ee:	3036                	fld	ft0,360(sp)
 10006f0:	3030                	fld	fa2,96(s0)
 10006f2:	3030                	fld	fa2,96(s0)
 10006f4:	0030                	addi	a2,sp,8
 10006f6:	0000                	unimp
 10006f8:	0000                	unimp
 10006fa:	0300                	addi	s0,sp,384
 10006fc:	0000                	unimp
 10006fe:	0700                	addi	s0,sp,896
 1000700:	0000                	unimp
 1000702:	d101                	beqz	a0,1000602 <device_tree+0x5d2>
 1000704:	2d75                	addiw	s10,s10,29
 1000706:	6f62                	ld	t5,24(sp)
 1000708:	0000746f          	jal	s0,1007708 <__spl_start+0x65b0>
 100070c:	0000                	unimp
 100070e:	0300                	addi	s0,sp,384
 1000710:	0000                	unimp
 1000712:	0800                	addi	s0,sp,16
 1000714:	0000                	unimp
 1000716:	5e00                	lw	s0,56(a2)
 1000718:	0006                	c.slli	zero,0x1
 100071a:	0000                	unimp
 100071c:	1000                	addi	s0,sp,32
 100071e:	0000                	unimp
 1000720:	0000                	unimp
 1000722:	0300                	addi	s0,sp,384
 1000724:	0000                	unimp
 1000726:	0000                	unimp
 1000728:	0000                	unimp
 100072a:	d701                	beqz	a4,1000632 <device_tree+0x602>
 100072c:	0000                	unimp
 100072e:	0200                	addi	s0,sp,256
 1000730:	0000                	unimp
 1000732:	0100                	addi	s0,sp,128
 1000734:	6975                	lui	s2,0x1d
 1000736:	616d                	addi	sp,sp,240
 1000738:	36406567          	0x36406567
 100073c:	3031                	0x3031
 100073e:	3030                	fld	fa2,96(s0)
 1000740:	3030                	fld	fa2,96(s0)
 1000742:	0000                	unimp
 1000744:	0000                	unimp
 1000746:	0300                	addi	s0,sp,384
 1000748:	0000                	unimp
 100074a:	0700                	addi	s0,sp,896
 100074c:	0000                	unimp
 100074e:	d101                	beqz	a0,100064e <device_tree+0x61e>
 1000750:	6975                	lui	s2,0x1d
 1000752:	616d                	addi	sp,sp,240
 1000754:	00006567          	0x6567
 1000758:	0000                	unimp
 100075a:	0300                	addi	s0,sp,384
 100075c:	0000                	unimp
 100075e:	0800                	addi	s0,sp,16
 1000760:	0000                	unimp
 1000762:	5e00                	lw	s0,56(a2)
 1000764:	1006                	c.slli	zero,0x21
 1000766:	0000                	unimp
 1000768:	0001                	nop
 100076a:	0000                	unimp
 100076c:	0000                	unimp
 100076e:	0300                	addi	s0,sp,384
 1000770:	0000                	unimp
 1000772:	0000                	unimp
 1000774:	0000                	unimp
 1000776:	d701                	beqz	a4,100067e <device_tree+0x64e>
 1000778:	0000                	unimp
 100077a:	0200                	addi	s0,sp,256
 100077c:	0000                	unimp
 100077e:	0100                	addi	s0,sp,128
 1000780:	6170                	ld	a2,192(a0)
 1000782:	7472                	ld	s0,312(sp)
 1000784:	7469                	lui	s0,0xffffa
 1000786:	6f69                	lui	t5,0x1a
 1000788:	406e                	0x406e
 100078a:	30303137          	lui	sp,0x30303
 100078e:	3030                	fld	fa2,96(s0)
 1000790:	0030                	addi	a2,sp,8
 1000792:	0000                	unimp
 1000794:	0000                	unimp
 1000796:	0300                	addi	s0,sp,384
 1000798:	0000                	unimp
 100079a:	0b00                	addi	s0,sp,400
 100079c:	0000                	unimp
 100079e:	d101                	beqz	a0,100069e <device_tree+0x66e>
 10007a0:	6966                	ld	s2,88(sp)
 10007a2:	656c                	ld	a1,200(a0)
 10007a4:	74737973          	csrrci	s2,0x747,6
 10007a8:	6d65                	lui	s10,0x19
 10007aa:	0000                	unimp
 10007ac:	0000                	unimp
 10007ae:	0300                	addi	s0,sp,384
 10007b0:	0000                	unimp
 10007b2:	0800                	addi	s0,sp,16
 10007b4:	0000                	unimp
 10007b6:	5e00                	lw	s0,56(a2)
 10007b8:	00001007          	0x1007
 10007bc:	f008                	sd	a0,32(s0)
 10007be:	0000                	unimp
 10007c0:	0000                	unimp
 10007c2:	0200                	addi	s0,sp,256
 10007c4:	0000                	unimp
 10007c6:	0200                	addi	s0,sp,256
 10007c8:	0000                	unimp
 10007ca:	0200                	addi	s0,sp,256
 10007cc:	0000                	unimp
 10007ce:	0100                	addi	s0,sp,128
 10007d0:	6e696c63          	bltu	s2,t1,1000ec8 <device_tree+0xe98>
 10007d4:	4074                	lw	a3,68(s0)
 10007d6:	3034                	fld	fa3,96(s0)
 10007d8:	3030                	fld	fa2,96(s0)
 10007da:	3030                	fld	fa2,96(s0)
 10007dc:	0030                	addi	a2,sp,8
 10007de:	0000                	unimp
 10007e0:	0000                	unimp
 10007e2:	0300                	addi	s0,sp,384
 10007e4:	0000                	unimp
 10007e6:	0400                	addi	s0,sp,512
 10007e8:	0000                	unimp
 10007ea:	7c00                	ld	s0,56(s0)
 10007ec:	be00                	fsd	fs0,56(a2)
 10007ee:	20bc                	fld	fa5,64(s1)
 10007f0:	0000                	unimp
 10007f2:	0300                	addi	s0,sp,384
 10007f4:	0000                	unimp
 10007f6:	0d00                	addi	s0,sp,656
 10007f8:	0000                	unimp
 10007fa:	1b00                	addi	s0,sp,432
 10007fc:	6972                	ld	s2,280(sp)
 10007fe:	2c766373          	csrrsi	t1,0x2c7,12
 1000802:	6e696c63          	bltu	s2,t1,1000efa <device_tree+0xeca>
 1000806:	3074                	fld	fa3,224(s0)
 1000808:	0000                	unimp
 100080a:	0000                	unimp
 100080c:	0000                	unimp
 100080e:	0300                	addi	s0,sp,384
 1000810:	0000                	unimp
 1000812:	1000                	addi	s0,sp,32
 1000814:	0000                	unimp
 1000816:	4101                	li	sp,0
 1000818:	0000                	unimp
 100081a:	0300                	addi	s0,sp,384
 100081c:	0000                	unimp
 100081e:	0300                	addi	s0,sp,384
 1000820:	0000                	unimp
 1000822:	0300                	addi	s0,sp,384
 1000824:	0000                	unimp
 1000826:	0700                	addi	s0,sp,896
 1000828:	0000                	unimp
 100082a:	0300                	addi	s0,sp,384
 100082c:	0000                	unimp
 100082e:	0600                	addi	s0,sp,768
 1000830:	0000                	unimp
 1000832:	eb00                	sd	s0,16(a4)
 1000834:	6e696c63          	bltu	s2,t1,1000f2c <device_tree+0xefc>
 1000838:	0074                	addi	a3,sp,12
 100083a:	0000                	unimp
 100083c:	0000                	unimp
 100083e:	0300                	addi	s0,sp,384
 1000840:	0000                	unimp
 1000842:	1000                	addi	s0,sp,32
 1000844:	0000                	unimp
 1000846:	5e00                	lw	s0,56(a2)
 1000848:	0000                	unimp
 100084a:	0000                	unimp
 100084c:	0004                	0x4
 100084e:	0000                	unimp
 1000850:	0000                	unimp
 1000852:	0000                	unimp
 1000854:	1000                	addi	s0,sp,32
 1000856:	0000                	unimp
 1000858:	0000                	unimp
 100085a:	0200                	addi	s0,sp,256
 100085c:	0000                	unimp
 100085e:	0100                	addi	s0,sp,128
 1000860:	6e69                	lui	t3,0x1a
 1000862:	6574                	ld	a3,200(a0)
 1000864:	7272                	ld	tp,312(sp)
 1000866:	7075                	c.lui	zero,0xffffd
 1000868:	2d74                	fld	fa3,216(a0)
 100086a:	746e6f63          	bltu	t3,t1,1000fc8 <device_tree+0xf98>
 100086e:	6f72                	ld	t5,280(sp)
 1000870:	6c6c                	ld	a1,216(s0)
 1000872:	7265                	lui	tp,0xffff9
 1000874:	6340                	ld	s0,128(a4)
 1000876:	3030                	fld	fa2,96(s0)
 1000878:	3030                	fld	fa2,96(s0)
 100087a:	3030                	fld	fa2,96(s0)
 100087c:	0000                	unimp
 100087e:	0000                	unimp
 1000880:	0000                	unimp
 1000882:	0300                	addi	s0,sp,384
 1000884:	0000                	unimp
 1000886:	0c00                	addi	s0,sp,528
 1000888:	0000                	unimp
 100088a:	1b00                	addi	s0,sp,432
 100088c:	6972                	ld	s2,280(sp)
 100088e:	2c766373          	csrrsi	t1,0x2c7,12
 1000892:	6c70                	ld	a2,216(s0)
 1000894:	6369                	lui	t1,0x1a
 1000896:	0030                	addi	a2,sp,8
 1000898:	0000                	unimp
 100089a:	0300                	addi	s0,sp,384
 100089c:	0000                	unimp
 100089e:	0400                	addi	s0,sp,512
	...
 10008a8:	0000                	unimp
 10008aa:	0300                	addi	s0,sp,384
 10008ac:	0000                	unimp
 10008ae:	0400                	addi	s0,sp,512
 10008b0:	0000                	unimp
 10008b2:	a900                	fsd	fs0,16(a0)
 10008b4:	0000                	unimp
 10008b6:	0100                	addi	s0,sp,128
 10008b8:	0000                	unimp
 10008ba:	0300                	addi	s0,sp,384
 10008bc:	0000                	unimp
 10008be:	0000                	unimp
 10008c0:	0000                	unimp
 10008c2:	ba00                	fsd	fs0,48(a2)
 10008c4:	0000                	unimp
 10008c6:	0300                	addi	s0,sp,384
 10008c8:	0000                	unimp
 10008ca:	1000                	addi	s0,sp,32
 10008cc:	0000                	unimp
 10008ce:	4101                	li	sp,0
 10008d0:	0000                	unimp
 10008d2:	0300                	addi	s0,sp,384
 10008d4:	0000                	unimp
 10008d6:	0b00                	addi	s0,sp,400
 10008d8:	0000                	unimp
 10008da:	0300                	addi	s0,sp,384
 10008dc:	0000                	unimp
 10008de:	0900                	addi	s0,sp,144
 10008e0:	0000                	unimp
 10008e2:	0300                	addi	s0,sp,384
 10008e4:	0000                	unimp
 10008e6:	0400                	addi	s0,sp,512
 10008e8:	0000                	unimp
 10008ea:	e101                	bnez	a0,10008ea <device_tree+0x8ba>
 10008ec:	0000                	unimp
 10008ee:	0600                	addi	s0,sp,768
 10008f0:	0000                	unimp
 10008f2:	0300                	addi	s0,sp,384
 10008f4:	0000                	unimp
 10008f6:	0400                	addi	s0,sp,512
 10008f8:	0000                	unimp
 10008fa:	f401                	bnez	s0,1000802 <device_tree+0x7d2>
 10008fc:	0000                	unimp
 10008fe:	4800                	lw	s0,16(s0)
 1000900:	0000                	unimp
 1000902:	0300                	addi	s0,sp,384
 1000904:	0000                	unimp
 1000906:	1000                	addi	s0,sp,32
 1000908:	0000                	unimp
 100090a:	5e00                	lw	s0,56(a2)
 100090c:	0000                	unimp
 100090e:	0000                	unimp
 1000910:	000c                	0xc
 1000912:	0000                	unimp
 1000914:	0000                	unimp
 1000916:	0000                	unimp
 1000918:	0004                	0x4
 100091a:	0000                	unimp
 100091c:	0000                	unimp
 100091e:	0300                	addi	s0,sp,384
 1000920:	0000                	unimp
 1000922:	0400                	addi	s0,sp,512
 1000924:	0000                	unimp
 1000926:	cf00                	sw	s0,24(a4)
 1000928:	0000                	unimp
 100092a:	0100                	addi	s0,sp,128
 100092c:	0000                	unimp
 100092e:	0200                	addi	s0,sp,256
 1000930:	0000                	unimp
 1000932:	0100                	addi	s0,sp,128
 1000934:	7465                	lui	s0,0xffff9
 1000936:	5f68                	lw	a0,124(a4)
 1000938:	6d64                	ld	s1,216(a0)
 100093a:	4061                	c.li	zero,24
 100093c:	6434                	ld	a3,72(s0)
 100093e:	3030                	fld	fa2,96(s0)
 1000940:	3030                	fld	fa2,96(s0)
 1000942:	3030                	fld	fa2,96(s0)
 1000944:	0000                	unimp
 1000946:	0000                	unimp
 1000948:	0000                	unimp
 100094a:	0300                	addi	s0,sp,384
 100094c:	0000                	unimp
 100094e:	0400                	addi	s0,sp,512
 1000950:	0000                	unimp
 1000952:	ff01                	bnez	a4,100086a <device_tree+0x83a>
 1000954:	0000                	unimp
 1000956:	0100                	addi	s0,sp,128
 1000958:	0000                	unimp
 100095a:	0300                	addi	s0,sp,384
 100095c:	0000                	unimp
 100095e:	0400                	addi	s0,sp,512
 1000960:	0000                	unimp
 1000962:	0000                	unimp
 1000964:	0000                	unimp
 1000966:	0100                	addi	s0,sp,128
 1000968:	0000                	unimp
 100096a:	0300                	addi	s0,sp,384
 100096c:	0000                	unimp
 100096e:	0400                	addi	s0,sp,512
 1000970:	0000                	unimp
 1000972:	0f00                	addi	s0,sp,912
 1000974:	0000                	unimp
 1000976:	0100                	addi	s0,sp,128
 1000978:	0000                	unimp
 100097a:	0300                	addi	s0,sp,384
 100097c:	0000                	unimp
 100097e:	1400                	addi	s0,sp,544
 1000980:	0000                	unimp
 1000982:	1b00                	addi	s0,sp,432
 1000984:	6c78                	ld	a4,216(s0)
 1000986:	786e                	ld	a6,248(sp)
 1000988:	612c                	ld	a1,64(a0)
 100098a:	6978                	ld	a4,208(a0)
 100098c:	642d                	lui	s0,0xb
 100098e:	616d                	addi	sp,sp,240
 1000990:	312d                	addiw	sp,sp,-21
 1000992:	302e                	fld	ft0,232(sp)
 1000994:	2e30                	fld	fa2,88(a2)
 1000996:	0061                	c.nop	24
 1000998:	0000                	unimp
 100099a:	0300                	addi	s0,sp,384
 100099c:	0000                	unimp
 100099e:	1000                	addi	s0,sp,32
 10009a0:	0000                	unimp
 10009a2:	5e00                	lw	s0,56(a2)
 10009a4:	0000                	unimp
 10009a6:	0000                	unimp
 10009a8:	004d                	c.nop	19
 10009aa:	0000                	unimp
 10009ac:	0000                	unimp
 10009ae:	0000                	unimp
 10009b0:	0100                	addi	s0,sp,128
 10009b2:	0000                	unimp
 10009b4:	0000                	unimp
 10009b6:	0300                	addi	s0,sp,384
 10009b8:	0000                	unimp
 10009ba:	1000                	addi	s0,sp,32
 10009bc:	0000                	unimp
 10009be:	4101                	li	sp,0
 10009c0:	0000                	unimp
 10009c2:	0100                	addi	s0,sp,128
 10009c4:	0000                	unimp
 10009c6:	0300                	addi	s0,sp,384
 10009c8:	0000                	unimp
 10009ca:	0100                	addi	s0,sp,128
 10009cc:	0000                	unimp
 10009ce:	0400                	addi	s0,sp,512
 10009d0:	0000                	unimp
 10009d2:	0300                	addi	s0,sp,384
 10009d4:	0000                	unimp
 10009d6:	0400                	addi	s0,sp,512
 10009d8:	0000                	unimp
 10009da:	0a02                	c.slli64	s4
 10009dc:	0000                	unimp
 10009de:	4000                	lw	s0,0(s0)
 10009e0:	0000                	unimp
 10009e2:	0300                	addi	s0,sp,384
 10009e4:	0000                	unimp
 10009e6:	0000                	unimp
 10009e8:	0000                	unimp
 10009ea:	1902                	slli	s2,s2,0x20
 10009ec:	0000                	unimp
 10009ee:	0300                	addi	s0,sp,384
 10009f0:	0000                	unimp
 10009f2:	0400                	addi	s0,sp,512
 10009f4:	0000                	unimp
 10009f6:	cf00                	sw	s0,24(a4)
 10009f8:	0000                	unimp
 10009fa:	0400                	addi	s0,sp,512
 10009fc:	0000                	unimp
 10009fe:	0100                	addi	s0,sp,128
 1000a00:	6d64                	ld	s1,216(a0)
 1000a02:	2d61                	addiw	s10,s10,24
 1000a04:	6e616863          	bltu	sp,t1,10010f4 <device_tree+0x10c4>
 1000a08:	656e                	ld	a0,216(sp)
 1000a0a:	406c                	lw	a1,68(s0)
 1000a0c:	6434                	ld	a3,72(s0)
 1000a0e:	3030                	fld	fa2,96(s0)
 1000a10:	3030                	fld	fa2,96(s0)
 1000a12:	3030                	fld	fa2,96(s0)
 1000a14:	0000                	unimp
 1000a16:	0000                	unimp
 1000a18:	0000                	unimp
 1000a1a:	0300                	addi	s0,sp,384
 1000a1c:	0000                	unimp
 1000a1e:	1a00                	addi	s0,sp,304
 1000a20:	0000                	unimp
 1000a22:	1b00                	addi	s0,sp,432
 1000a24:	6c78                	ld	a4,216(s0)
 1000a26:	786e                	ld	a6,248(sp)
 1000a28:	612c                	ld	a1,64(a0)
 1000a2a:	6978                	ld	a4,208(a0)
 1000a2c:	642d                	lui	s0,0xb
 1000a2e:	616d                	addi	sp,sp,240
 1000a30:	6d2d                	lui	s10,0xb
 1000a32:	326d                	addiw	tp,tp,-5
 1000a34:	68632d73          	csrrs	s10,0x686,t1
 1000a38:	6e61                	lui	t3,0x18
 1000a3a:	656e                	ld	a0,216(sp)
 1000a3c:	006c                	addi	a1,sp,12
 1000a3e:	0000                	unimp
 1000a40:	0000                	unimp
 1000a42:	0300                	addi	s0,sp,384
 1000a44:	0000                	unimp
 1000a46:	0800                	addi	s0,sp,16
 1000a48:	0000                	unimp
 1000a4a:	5e00                	lw	s0,56(a2)
	...
 1000a54:	0000                	unimp
 1000a56:	0300                	addi	s0,sp,384
 1000a58:	0000                	unimp
 1000a5a:	0400                	addi	s0,sp,512
 1000a5c:	0000                	unimp
 1000a5e:	2902                	fld	fs2,0(sp)
 1000a60:	0000                	unimp
 1000a62:	0100                	addi	s0,sp,128
 1000a64:	0000                	unimp
 1000a66:	0300                	addi	s0,sp,384
 1000a68:	0000                	unimp
 1000a6a:	0800                	addi	s0,sp,16
 1000a6c:	0000                	unimp
 1000a6e:	4101                	li	sp,0
 1000a70:	0000                	unimp
 1000a72:	0100                	addi	s0,sp,128
 1000a74:	0000                	unimp
 1000a76:	0300                	addi	s0,sp,384
 1000a78:	0000                	unimp
 1000a7a:	0300                	addi	s0,sp,384
 1000a7c:	0000                	unimp
 1000a7e:	0400                	addi	s0,sp,512
 1000a80:	0000                	unimp
 1000a82:	3602                	fld	fa2,32(sp)
 1000a84:	0000                	unimp
 1000a86:	2000                	fld	fs0,0(s0)
 1000a88:	0000                	unimp
 1000a8a:	0300                	addi	s0,sp,384
 1000a8c:	0000                	unimp
 1000a8e:	0400                	addi	s0,sp,512
 1000a90:	0000                	unimp
 1000a92:	4502                	lw	a0,0(sp)
 1000a94:	0000                	unimp
 1000a96:	0000                	unimp
 1000a98:	0000                	unimp
 1000a9a:	0300                	addi	s0,sp,384
 1000a9c:	0000                	unimp
 1000a9e:	0000                	unimp
 1000aa0:	0000                	unimp
 1000aa2:	5402                	lw	s0,32(sp)
 1000aa4:	0000                	unimp
 1000aa6:	0200                	addi	s0,sp,256
 1000aa8:	0000                	unimp
 1000aaa:	0100                	addi	s0,sp,128
 1000aac:	6d64                	ld	s1,216(a0)
 1000aae:	2d61                	addiw	s10,s10,24
 1000ab0:	6e616863          	bltu	sp,t1,10011a0 <__spl_start+0x48>
 1000ab4:	656e                	ld	a0,216(sp)
 1000ab6:	406c                	lw	a1,68(s0)
 1000ab8:	6434                	ld	a3,72(s0)
 1000aba:	3030                	fld	fa2,96(s0)
 1000abc:	3030                	fld	fa2,96(s0)
 1000abe:	00003033          	snez	zero,zero
 1000ac2:	0000                	unimp
 1000ac4:	0000                	unimp
 1000ac6:	0300                	addi	s0,sp,384
 1000ac8:	0000                	unimp
 1000aca:	1a00                	addi	s0,sp,304
 1000acc:	0000                	unimp
 1000ace:	1b00                	addi	s0,sp,432
 1000ad0:	6c78                	ld	a4,216(s0)
 1000ad2:	786e                	ld	a6,248(sp)
 1000ad4:	612c                	ld	a1,64(a0)
 1000ad6:	6978                	ld	a4,208(a0)
 1000ad8:	642d                	lui	s0,0xb
 1000ada:	616d                	addi	sp,sp,240
 1000adc:	732d                	lui	t1,0xfffeb
 1000ade:	6d32                	ld	s10,264(sp)
 1000ae0:	2d6d                	addiw	s10,s10,27
 1000ae2:	6e616863          	bltu	sp,t1,10011d2 <__spl_start+0x7a>
 1000ae6:	656e                	ld	a0,216(sp)
 1000ae8:	006c                	addi	a1,sp,12
 1000aea:	0000                	unimp
 1000aec:	0000                	unimp
 1000aee:	0300                	addi	s0,sp,384
 1000af0:	0000                	unimp
 1000af2:	0800                	addi	s0,sp,16
 1000af4:	0000                	unimp
 1000af6:	5e00                	lw	s0,56(a2)
	...
 1000b00:	0000                	unimp
 1000b02:	0300                	addi	s0,sp,384
 1000b04:	0000                	unimp
 1000b06:	0400                	addi	s0,sp,512
 1000b08:	0000                	unimp
 1000b0a:	2902                	fld	fs2,0(sp)
 1000b0c:	0000                	unimp
 1000b0e:	0100                	addi	s0,sp,128
 1000b10:	0000                	unimp
 1000b12:	0300                	addi	s0,sp,384
 1000b14:	0000                	unimp
 1000b16:	0800                	addi	s0,sp,16
 1000b18:	0000                	unimp
 1000b1a:	4101                	li	sp,0
 1000b1c:	0000                	unimp
 1000b1e:	0100                	addi	s0,sp,128
 1000b20:	0000                	unimp
 1000b22:	0400                	addi	s0,sp,512
 1000b24:	0000                	unimp
 1000b26:	0300                	addi	s0,sp,384
 1000b28:	0000                	unimp
 1000b2a:	0400                	addi	s0,sp,512
 1000b2c:	0000                	unimp
 1000b2e:	3602                	fld	fa2,32(sp)
 1000b30:	0000                	unimp
 1000b32:	2000                	fld	fs0,0(s0)
 1000b34:	0000                	unimp
 1000b36:	0300                	addi	s0,sp,384
 1000b38:	0000                	unimp
 1000b3a:	0400                	addi	s0,sp,512
 1000b3c:	0000                	unimp
 1000b3e:	4502                	lw	a0,0(sp)
 1000b40:	0000                	unimp
 1000b42:	0000                	unimp
 1000b44:	0000                	unimp
 1000b46:	0300                	addi	s0,sp,384
 1000b48:	0000                	unimp
 1000b4a:	0000                	unimp
 1000b4c:	0000                	unimp
 1000b4e:	5402                	lw	s0,32(sp)
 1000b50:	0000                	unimp
 1000b52:	0200                	addi	s0,sp,256
 1000b54:	0000                	unimp
 1000b56:	0200                	addi	s0,sp,256
 1000b58:	0000                	unimp
 1000b5a:	0100                	addi	s0,sp,128
 1000b5c:	7465                	lui	s0,0xffff9
 1000b5e:	3068                	fld	fa0,224(s0)
 1000b60:	3440                	fld	fs0,168(s0)
 1000b62:	30303463          	0x30303463
 1000b66:	3030                	fld	fa2,96(s0)
 1000b68:	0030                	addi	a2,sp,8
 1000b6a:	0000                	unimp
 1000b6c:	0000                	unimp
 1000b6e:	0300                	addi	s0,sp,384
 1000b70:	0000                	unimp
 1000b72:	1900                	addi	s0,sp,176
 1000b74:	0000                	unimp
 1000b76:	1b00                	addi	s0,sp,432
 1000b78:	6c78                	ld	a4,216(s0)
 1000b7a:	786e                	ld	a6,248(sp)
 1000b7c:	612c                	ld	a1,64(a0)
 1000b7e:	6978                	ld	a4,208(a0)
 1000b80:	652d                	lui	a0,0xb
 1000b82:	6874                	ld	a3,208(s0)
 1000b84:	7265                	lui	tp,0xffff9
 1000b86:	656e                	ld	a0,216(sp)
 1000b88:	2d74                	fld	fa3,216(a0)
 1000b8a:	2e31                	addiw	t3,t3,12
 1000b8c:	3030                	fld	fa2,96(s0)
 1000b8e:	612e                	ld	sp,200(sp)
 1000b90:	0000                	unimp
 1000b92:	0000                	unimp
 1000b94:	0000                	unimp
 1000b96:	0300                	addi	s0,sp,384
 1000b98:	0000                	unimp
 1000b9a:	1000                	addi	s0,sp,32
 1000b9c:	0000                	unimp
 1000b9e:	5e00                	lw	s0,56(a2)
 1000ba0:	0000                	unimp
 1000ba2:	0000                	unimp
 1000ba4:	404c                	lw	a1,4(s0)
 1000ba6:	0000                	unimp
 1000ba8:	0000                	unimp
 1000baa:	0000                	unimp
 1000bac:	0400                	addi	s0,sp,512
 1000bae:	0000                	unimp
 1000bb0:	0000                	unimp
 1000bb2:	0300                	addi	s0,sp,384
 1000bb4:	0000                	unimp
 1000bb6:	0800                	addi	s0,sp,16
 1000bb8:	0000                	unimp
 1000bba:	5501                	li	a0,-32
 1000bbc:	0000                	unimp
 1000bbe:	0200                	addi	s0,sp,256
 1000bc0:	0000                	unimp
 1000bc2:	0200                	addi	s0,sp,256
 1000bc4:	0000                	unimp
 1000bc6:	0300                	addi	s0,sp,384
 1000bc8:	0000                	unimp
 1000bca:	1800                	addi	s0,sp,48
 1000bcc:	0000                	unimp
 1000bce:	6502                	ld	a0,0(sp)
 1000bd0:	78615f73          	csrrwi	t5,0x786,2
 1000bd4:	5f69                	li	t5,-6
 1000bd6:	696c                	ld	a1,208(a0)
 1000bd8:	6574                	ld	a3,200(a0)
 1000bda:	635f 6b6c 6100      	0x61006b6c635f
 1000be0:	6978                	ld	a4,208(a0)
 1000be2:	6c635f73          	csrrwi	t5,0x6c6,6
 1000be6:	0000006b          	0x6b
 1000bea:	0300                	addi	s0,sp,384
 1000bec:	0000                	unimp
 1000bee:	1000                	addi	s0,sp,32
 1000bf0:	0000                	unimp
 1000bf2:	4101                	li	sp,0
 1000bf4:	0000                	unimp
 1000bf6:	0100                	addi	s0,sp,128
 1000bf8:	0000                	unimp
 1000bfa:	0100                	addi	s0,sp,128
 1000bfc:	0000                	unimp
 1000bfe:	0100                	addi	s0,sp,128
 1000c00:	0000                	unimp
 1000c02:	0600                	addi	s0,sp,768
 1000c04:	0000                	unimp
 1000c06:	0300                	addi	s0,sp,384
 1000c08:	0000                	unimp
 1000c0a:	0600                	addi	s0,sp,768
 1000c0c:	0000                	unimp
 1000c0e:	7102                	ld	sp,32(sp)
 1000c10:	0a00                	addi	s0,sp,272
 1000c12:	0435                	addi	s0,s0,13
 1000c14:	52e1                	li	t0,-8
 1000c16:	0000                	unimp
 1000c18:	0000                	unimp
 1000c1a:	0300                	addi	s0,sp,384
 1000c1c:	0000                	unimp
 1000c1e:	0600                	addi	s0,sp,768
 1000c20:	0000                	unimp
 1000c22:	7702                	ld	a4,32(sp)
 1000c24:	0a00                	addi	s0,sp,272
 1000c26:	0435                	addi	s0,s0,13
 1000c28:	52e1                	li	t0,-8
 1000c2a:	0000                	unimp
 1000c2c:	0000                	unimp
 1000c2e:	0300                	addi	s0,sp,384
 1000c30:	0000                	unimp
 1000c32:	0800                	addi	s0,sp,16
 1000c34:	0000                	unimp
 1000c36:	5200                	lw	s0,32(a2)
 1000c38:	656e                	ld	a0,216(sp)
 1000c3a:	7774                	ld	a3,232(a4)
 1000c3c:	006b726f          	jal	tp,10b7c42 <__spl_src_start+0xaa69a>
 1000c40:	0000                	unimp
 1000c42:	0300                	addi	s0,sp,384
 1000c44:	0000                	unimp
 1000c46:	0400                	addi	s0,sp,512
 1000c48:	0000                	unimp
 1000c4a:	8302                	jr	t1
 1000c4c:	0000                	unimp
 1000c4e:	0400                	addi	s0,sp,512
 1000c50:	0000                	unimp
 1000c52:	0300                	addi	s0,sp,384
 1000c54:	0000                	unimp
 1000c56:	0400                	addi	s0,sp,512
 1000c58:	0000                	unimp
 1000c5a:	9702                	jalr	a4
 1000c5c:	0000                	unimp
 1000c5e:	0400                	addi	s0,sp,512
 1000c60:	0000                	unimp
 1000c62:	0300                	addi	s0,sp,384
 1000c64:	0000                	unimp
 1000c66:	0400                	addi	s0,sp,512
 1000c68:	0000                	unimp
 1000c6a:	b302                	fsd	ft0,416(sp)
 1000c6c:	0000                	unimp
 1000c6e:	0500                	addi	s0,sp,640
 1000c70:	0000                	unimp
 1000c72:	0300                	addi	s0,sp,384
 1000c74:	0000                	unimp
 1000c76:	0600                	addi	s0,sp,768
 1000c78:	0000                	unimp
 1000c7a:	be02                	fsd	ft0,312(sp)
 1000c7c:	696d6773          	csrrsi	a4,0x696,26
 1000c80:	0069                	c.nop	26
 1000c82:	0000                	unimp
 1000c84:	0000                	unimp
 1000c86:	0300                	addi	s0,sp,384
 1000c88:	0000                	unimp
 1000c8a:	0400                	addi	s0,sp,512
 1000c8c:	0000                	unimp
 1000c8e:	c702                	sw	zero,140(sp)
 1000c90:	0000                	unimp
 1000c92:	0000                	unimp
 1000c94:	0000                	unimp
 1000c96:	0300                	addi	s0,sp,384
 1000c98:	0000                	unimp
 1000c9a:	0400                	addi	s0,sp,512
 1000c9c:	0000                	unimp
 1000c9e:	d402                	sw	zero,40(sp)
 1000ca0:	0000                	unimp
 1000ca2:	0200                	addi	s0,sp,256
 1000ca4:	0000                	unimp
 1000ca6:	0300                	addi	s0,sp,384
 1000ca8:	0000                	unimp
 1000caa:	0400                	addi	s0,sp,512
 1000cac:	0000                	unimp
 1000cae:	e002                	sd	zero,0(sp)
 1000cb0:	0000                	unimp
 1000cb2:	0010                	0x10
 1000cb4:	0000                	unimp
 1000cb6:	0300                	addi	s0,sp,384
 1000cb8:	0000                	unimp
 1000cba:	0400                	addi	s0,sp,512
 1000cbc:	0000                	unimp
 1000cbe:	eb02                	sd	zero,400(sp)
 1000cc0:	0000                	unimp
 1000cc2:	0200                	addi	s0,sp,256
 1000cc4:	0000                	unimp
 1000cc6:	0300                	addi	s0,sp,384
 1000cc8:	0000                	unimp
 1000cca:	0400                	addi	s0,sp,512
 1000ccc:	0000                	unimp
 1000cce:	f702                	sd	zero,424(sp)
 1000cd0:	0000                	unimp
 1000cd2:	0010                	0x10
 1000cd4:	0000                	unimp
 1000cd6:	0100                	addi	s0,sp,128
 1000cd8:	646d                	lui	s0,0x1b
 1000cda:	6f69                	lui	t5,0x1a
 1000cdc:	0000                	unimp
 1000cde:	0000                	unimp
 1000ce0:	0000                	unimp
 1000ce2:	0300                	addi	s0,sp,384
 1000ce4:	0000                	unimp
 1000ce6:	0400                	addi	s0,sp,512
 1000ce8:	0000                	unimp
 1000cea:	0000                	unimp
 1000cec:	0000                	unimp
 1000cee:	0100                	addi	s0,sp,128
 1000cf0:	0000                	unimp
 1000cf2:	0300                	addi	s0,sp,384
 1000cf4:	0000                	unimp
 1000cf6:	0400                	addi	s0,sp,512
 1000cf8:	0000                	unimp
 1000cfa:	0f00                	addi	s0,sp,912
 1000cfc:	0000                	unimp
 1000cfe:	0000                	unimp
 1000d00:	0000                	unimp
 1000d02:	0100                	addi	s0,sp,128
 1000d04:	7465                	lui	s0,0xffff9
 1000d06:	6568                	ld	a0,200(a0)
 1000d08:	6e72                	ld	t3,280(sp)
 1000d0a:	7465                	lui	s0,0xffff9
 1000d0c:	702d                	c.lui	zero,0xfffeb
 1000d0e:	7968                	ld	a0,240(a0)
 1000d10:	3040                	fld	fs0,160(s0)
 1000d12:	0000                	unimp
 1000d14:	0000                	unimp
 1000d16:	0300                	addi	s0,sp,384
 1000d18:	0000                	unimp
 1000d1a:	0400                	addi	s0,sp,512
 1000d1c:	0000                	unimp
 1000d1e:	00000203          	lb	tp,0(zero) # 0 <_start-0x1000000>
 1000d22:	0100                	addi	s0,sp,128
 1000d24:	0000                	unimp
 1000d26:	0300                	addi	s0,sp,384
 1000d28:	0000                	unimp
 1000d2a:	0d00                	addi	s0,sp,656
 1000d2c:	0000                	unimp
 1000d2e:	5200                	lw	s0,32(a2)
 1000d30:	7465                	lui	s0,0xffff9
 1000d32:	6568                	ld	a0,200(a0)
 1000d34:	6e72                	ld	t3,280(sp)
 1000d36:	7465                	lui	s0,0xffff9
 1000d38:	702d                	c.lui	zero,0xfffeb
 1000d3a:	7968                	ld	a0,240(a0)
 1000d3c:	0000                	unimp
 1000d3e:	0000                	unimp
 1000d40:	0000                	unimp
 1000d42:	0300                	addi	s0,sp,384
 1000d44:	0000                	unimp
 1000d46:	0400                	addi	s0,sp,512
 1000d48:	0000                	unimp
 1000d4a:	5e00                	lw	s0,56(a2)
 1000d4c:	0000                	unimp
 1000d4e:	0000                	unimp
 1000d50:	0000                	unimp
 1000d52:	0200                	addi	s0,sp,256
 1000d54:	0000                	unimp
 1000d56:	0100                	addi	s0,sp,128
 1000d58:	7465                	lui	s0,0xffff9
 1000d5a:	6568                	ld	a0,200(a0)
 1000d5c:	6e72                	ld	t3,280(sp)
 1000d5e:	7465                	lui	s0,0xffff9
 1000d60:	702d                	c.lui	zero,0xfffeb
 1000d62:	7968                	ld	a0,240(a0)
 1000d64:	3340                	fld	fs0,160(a4)
 1000d66:	0000                	unimp
 1000d68:	0000                	unimp
 1000d6a:	0300                	addi	s0,sp,384
 1000d6c:	0000                	unimp
 1000d6e:	1b00                	addi	s0,sp,432
 1000d70:	0000                	unimp
 1000d72:	1b00                	addi	s0,sp,432
 1000d74:	7465                	lui	s0,0xffff9
 1000d76:	6568                	ld	a0,200(a0)
 1000d78:	6e72                	ld	t3,280(sp)
 1000d7a:	7465                	lui	s0,0xffff9
 1000d7c:	702d                	c.lui	zero,0xfffeb
 1000d7e:	7968                	ld	a0,240(a0)
 1000d80:	692d                	lui	s2,0xb
 1000d82:	6565                	lui	a0,0x19
 1000d84:	3865                	addiw	a6,a6,-7
 1000d86:	3230                	fld	fa2,96(a2)
 1000d88:	332e                	fld	ft6,232(sp)
 1000d8a:	632d                	lui	t1,0xb
 1000d8c:	3232                	fld	ft4,296(sp)
 1000d8e:	0000                	unimp
 1000d90:	0000                	unimp
 1000d92:	0300                	addi	s0,sp,384
 1000d94:	0000                	unimp
 1000d96:	0400                	addi	s0,sp,512
 1000d98:	0000                	unimp
 1000d9a:	5e00                	lw	s0,56(a2)
 1000d9c:	0000                	unimp
 1000d9e:	0300                	addi	s0,sp,384
 1000da0:	0000                	unimp
 1000da2:	0300                	addi	s0,sp,384
 1000da4:	0000                	unimp
 1000da6:	0400                	addi	s0,sp,512
 1000da8:	0000                	unimp
 1000daa:	00000203          	lb	tp,0(zero) # 0 <_start-0x1000000>
 1000dae:	0100                	addi	s0,sp,128
 1000db0:	0000                	unimp
 1000db2:	0300                	addi	s0,sp,384
 1000db4:	0000                	unimp
 1000db6:	0d00                	addi	s0,sp,656
 1000db8:	0000                	unimp
 1000dba:	5200                	lw	s0,32(a2)
 1000dbc:	7465                	lui	s0,0xffff9
 1000dbe:	6568                	ld	a0,200(a0)
 1000dc0:	6e72                	ld	t3,280(sp)
 1000dc2:	7465                	lui	s0,0xffff9
 1000dc4:	702d                	c.lui	zero,0xfffeb
 1000dc6:	7968                	ld	a0,240(a0)
 1000dc8:	0000                	unimp
 1000dca:	0000                	unimp
 1000dcc:	0000                	unimp
 1000dce:	0300                	addi	s0,sp,384
 1000dd0:	0000                	unimp
 1000dd2:	0000                	unimp
 1000dd4:	0000                	unimp
 1000dd6:	00000d03          	lb	s10,0(zero) # 0 <_start-0x1000000>
 1000dda:	0300                	addi	s0,sp,384
 1000ddc:	0000                	unimp
 1000dde:	0000                	unimp
 1000de0:	0000                	unimp
 1000de2:	00002e03          	lw	t3,0(zero) # 0 <_start-0x1000000>
 1000de6:	0300                	addi	s0,sp,384
 1000de8:	0000                	unimp
 1000dea:	0400                	addi	s0,sp,512
 1000dec:	0000                	unimp
 1000dee:	cf00                	sw	s0,24(a4)
 1000df0:	0000                	unimp
 1000df2:	0500                	addi	s0,sp,640
 1000df4:	0000                	unimp
 1000df6:	0200                	addi	s0,sp,256
 1000df8:	0000                	unimp
 1000dfa:	0200                	addi	s0,sp,256
 1000dfc:	0000                	unimp
 1000dfe:	0200                	addi	s0,sp,256
 1000e00:	0000                	unimp
 1000e02:	0200                	addi	s0,sp,256
 1000e04:	0000                	unimp
 1000e06:	0200                	addi	s0,sp,256
 1000e08:	0000                	unimp
 1000e0a:	0900                	addi	s0,sp,144
 1000e0c:	64646123          	0x64646123
 1000e10:	6572                	ld	a0,280(sp)
 1000e12:	632d7373          	csrrci	t1,0x632,26
 1000e16:	6c65                	lui	s8,0x19
 1000e18:	736c                	ld	a1,224(a4)
 1000e1a:	2300                	fld	fs0,0(a4)
 1000e1c:	657a6973          	csrrsi	s2,0x657,20
 1000e20:	632d                	lui	t1,0xb
 1000e22:	6c65                	lui	s8,0x19
 1000e24:	736c                	ld	a1,224(a4)
 1000e26:	6300                	ld	s0,0(a4)
 1000e28:	61706d6f          	jal	s10,1007c3e <__spl_start+0x6ae6>
 1000e2c:	6974                	ld	a3,208(a0)
 1000e2e:	6c62                	ld	s8,24(sp)
 1000e30:	0065                	c.nop	25
 1000e32:	6f6d                	lui	t5,0x1b
 1000e34:	6564                	ld	s1,200(a0)
 1000e36:	006c                	addi	a1,sp,12
 1000e38:	2d75                	addiw	s10,s10,29
 1000e3a:	6f62                	ld	t5,24(sp)
 1000e3c:	732c746f          	jal	s0,10c856e <__spl_src_start+0xbafc6>
 1000e40:	6c70                	ld	a2,216(s0)
 1000e42:	702d                	c.lui	zero,0xfffeb
 1000e44:	7961                	lui	s2,0xffff8
 1000e46:	6f6c                	ld	a1,216(a4)
 1000e48:	6461                	lui	s0,0x18
 1000e4a:	6f2d                	lui	t5,0xb
 1000e4c:	6666                	ld	a2,88(sp)
 1000e4e:	00746573          	csrrsi	a0,0x7,8
 1000e52:	6f647473          	csrrci	s0,0x6f6,8
 1000e56:	7475                	lui	s0,0xffffd
 1000e58:	702d                	c.lui	zero,0xfffeb
 1000e5a:	7461                	lui	s0,0xffff8
 1000e5c:	0068                	addi	a0,sp,12
 1000e5e:	6564                	ld	s1,200(a0)
 1000e60:	6976                	ld	s2,344(sp)
 1000e62:	745f6563          	bltu	t5,t0,10015ac <__spl_start+0x454>
 1000e66:	7079                	c.lui	zero,0xffffe
 1000e68:	0065                	c.nop	25
 1000e6a:	6572                	ld	a0,280(sp)
 1000e6c:	69740067          	jr	1687(s0) # ffffffffffff8697 <__spl_src_start+0xfffffffffefeb0ef>
 1000e70:	656d                	lui	a0,0x1b
 1000e72:	6162                	ld	sp,24(sp)
 1000e74:	662d6573          	csrrsi	a0,0x662,26
 1000e78:	6572                	ld	a0,280(sp)
 1000e7a:	7571                	lui	a0,0xffffc
 1000e7c:	6e65                	lui	t3,0x19
 1000e7e:	73007963          	bgeu	zero,a6,10015b0 <__spl_start+0x458>
 1000e82:	6174                	ld	a3,192(a0)
 1000e84:	7574                	ld	a3,232(a0)
 1000e86:	6c630073          	0x6c630073
 1000e8a:	2d6b636f          	jal	t1,10b7160 <__spl_src_start+0xa9bb8>
 1000e8e:	7266                	ld	tp,120(sp)
 1000e90:	7165                	addi	sp,sp,-400
 1000e92:	6575                	lui	a0,0x1d
 1000e94:	636e                	ld	t1,216(sp)
 1000e96:	0079                	c.nop	30
 1000e98:	6972                	ld	s2,280(sp)
 1000e9a:	2c766373          	csrrsi	t1,0x2c7,12
 1000e9e:	7369                	lui	t1,0xffffa
 1000ea0:	0061                	c.nop	24
 1000ea2:	6d6d                	lui	s10,0x1b
 1000ea4:	2d75                	addiw	s10,s10,29
 1000ea6:	7974                	ld	a3,240(a0)
 1000ea8:	6570                	ld	a2,200(a0)
 1000eaa:	7400                	ld	s0,40(s0)
 1000eac:	626c                	ld	a1,192(a2)
 1000eae:	732d                	lui	t1,0xfffeb
 1000eb0:	6c70                	ld	a2,216(s0)
 1000eb2:	7469                	lui	s0,0xffffa
 1000eb4:	2300                	fld	fs0,0(a4)
 1000eb6:	6e69                	lui	t3,0x1a
 1000eb8:	6574                	ld	a3,200(a0)
 1000eba:	7272                	ld	tp,312(sp)
 1000ebc:	7075                	c.lui	zero,0xffffd
 1000ebe:	2d74                	fld	fa3,216(a0)
 1000ec0:	6c6c6563          	bltu	s8,t1,100158a <__spl_start+0x432>
 1000ec4:	6e690073          	0x6e690073
 1000ec8:	6574                	ld	a3,200(a0)
 1000eca:	7272                	ld	tp,312(sp)
 1000ecc:	7075                	c.lui	zero,0xffffd
 1000ece:	2d74                	fld	fa3,216(a0)
 1000ed0:	746e6f63          	bltu	t3,t1,100162e <__spl_start+0x4d6>
 1000ed4:	6f72                	ld	t5,280(sp)
 1000ed6:	6c6c                	ld	a1,216(s0)
 1000ed8:	7265                	lui	tp,0xffff9
 1000eda:	7000                	ld	s0,32(s0)
 1000edc:	6168                	ld	a0,192(a0)
 1000ede:	646e                	ld	s0,216(sp)
 1000ee0:	656c                	ld	a1,200(a0)
 1000ee2:	2300                	fld	fs0,0(a4)
 1000ee4:	636f6c63          	bltu	t5,s6,100151c <__spl_start+0x3c4>
 1000ee8:	65632d6b          	0x65632d6b
 1000eec:	6c6c                	ld	a1,216(s0)
 1000eee:	61720073          	0x61720073
 1000ef2:	676e                	ld	a4,216(sp)
 1000ef4:	7365                	lui	t1,0xffff9
 1000ef6:	7200                	ld	s0,32(a2)
 1000ef8:	6765                	lui	a4,0x19
 1000efa:	6e2d                	lui	t3,0xb
 1000efc:	6d61                	lui	s10,0x18
 1000efe:	7365                	lui	t1,0xffff9
 1000f00:	6300                	ld	s0,0(a4)
 1000f02:	7275                	lui	tp,0xffffd
 1000f04:	6572                	ld	a0,280(sp)
 1000f06:	746e                	ld	s0,248(sp)
 1000f08:	732d                	lui	t1,0xfffeb
 1000f0a:	6570                	ld	a2,200(a0)
 1000f0c:	6465                	lui	s0,0x19
 1000f0e:	6900                	ld	s0,16(a0)
 1000f10:	746e                	ld	s0,248(sp)
 1000f12:	7265                	lui	tp,0xffff9
 1000f14:	7572                	ld	a0,312(sp)
 1000f16:	7470                	ld	a2,232(s0)
 1000f18:	702d                	c.lui	zero,0xfffeb
 1000f1a:	7261                	lui	tp,0xffff8
 1000f1c:	6e65                	lui	t3,0x19
 1000f1e:	0074                	addi	a3,sp,12
 1000f20:	6e69                	lui	t3,0x1a
 1000f22:	6574                	ld	a3,200(a0)
 1000f24:	7272                	ld	tp,312(sp)
 1000f26:	7075                	c.lui	zero,0xffffd
 1000f28:	7374                	ld	a3,224(a4)
 1000f2a:	7200                	ld	s0,32(a2)
 1000f2c:	6765                	lui	a4,0x19
 1000f2e:	6f2d                	lui	t5,0xb
 1000f30:	6666                	ld	a2,88(sp)
 1000f32:	00746573          	csrrsi	a0,0x7,8
 1000f36:	6572                	ld	a0,280(sp)
 1000f38:	68732d67          	0x68732d67
 1000f3c:	6669                	lui	a2,0x1a
 1000f3e:	0074                	addi	a3,sp,12
 1000f40:	6572                	ld	a0,280(sp)
 1000f42:	6f692d67          	0x6f692d67
 1000f46:	772d                	lui	a4,0xfffeb
 1000f48:	6469                	lui	s0,0x1a
 1000f4a:	6874                	ld	a3,208(s0)
 1000f4c:	6900                	ld	s0,16(a0)
 1000f4e:	746e                	ld	s0,248(sp)
 1000f50:	7265                	lui	tp,0xffff9
 1000f52:	7572                	ld	a0,312(sp)
 1000f54:	7470                	ld	a2,232(s0)
 1000f56:	78652d73          	csrrs	s10,0x786,a0
 1000f5a:	6574                	ld	a3,200(a0)
 1000f5c:	646e                	ld	s0,216(sp)
 1000f5e:	6465                	lui	s0,0x19
 1000f60:	6300                	ld	s0,0(a4)
 1000f62:	6f6c                	ld	a1,216(a4)
 1000f64:	00736b63          	bltu	t1,t2,1000f7a <device_tree+0xf4a>
 1000f68:	6c78                	ld	a4,216(s0)
 1000f6a:	786e                	ld	a6,248(sp)
 1000f6c:	6e2c                	ld	a1,88(a2)
 1000f6e:	6d75                	lui	s10,0x1d
 1000f70:	732d                	lui	t1,0xfffeb
 1000f72:	69622d73          	csrrs	s10,0x696,tp
 1000f76:	7374                	ld	a3,224(a4)
 1000f78:	7800                	ld	s0,48(s0)
 1000f7a:	6e6c                	ld	a1,216(a2)
 1000f7c:	2c78                	fld	fa4,216(s0)
 1000f7e:	756e                	ld	a0,248(sp)
 1000f80:	2d6d                	addiw	s10,s10,27
 1000f82:	7274                	ld	a3,224(a2)
 1000f84:	6e61                	lui	t3,0x18
 1000f86:	72656673          	csrrsi	a2,0x726,10
 1000f8a:	622d                	lui	tp,0xb
 1000f8c:	7469                	lui	s0,0xffffa
 1000f8e:	69660073          	0x69660073
 1000f92:	6f66                	ld	t5,88(sp)
 1000f94:	732d                	lui	t1,0xfffeb
 1000f96:	7a69                	lui	s4,0xffffa
 1000f98:	0065                	c.nop	25
 1000f9a:	2d697073          	csrci	0x2d6,18
 1000f9e:	616d                	addi	sp,sp,240
 1000fa0:	2d78                	fld	fa4,216(a0)
 1000fa2:	7266                	ld	tp,120(sp)
 1000fa4:	7165                	addi	sp,sp,-400
 1000fa6:	6575                	lui	a0,0x1d
 1000fa8:	636e                	ld	t1,216(sp)
 1000faa:	0079                	c.nop	30
 1000fac:	2d697073          	csrci	0x2d6,18
 1000fb0:	7872                	ld	a6,312(sp)
 1000fb2:	622d                	lui	tp,0xb
 1000fb4:	7375                	lui	t1,0xffffd
 1000fb6:	772d                	lui	a4,0xfffeb
 1000fb8:	6469                	lui	s0,0x1a
 1000fba:	6874                	ld	a3,208(s0)
 1000fbc:	7300                	ld	s0,32(a4)
 1000fbe:	6970                	ld	a2,208(a0)
 1000fc0:	742d                	lui	s0,0xfffeb
 1000fc2:	2d78                	fld	fa4,216(a0)
 1000fc4:	7562                	ld	a0,56(sp)
 1000fc6:	69772d73          	csrrs	s10,0x697,a4
 1000fca:	7464                	ld	s1,232(s0)
 1000fcc:	0068                	addi	a0,sp,12
 1000fce:	326d                	addiw	tp,tp,-5
 1000fd0:	7035                	c.lui	zero,0xfffed
 1000fd2:	662c                	ld	a1,72(a2)
 1000fd4:	7361                	lui	t1,0xffff8
 1000fd6:	2d74                	fld	fa3,216(a0)
 1000fd8:	6572                	ld	a0,280(sp)
 1000fda:	6461                	lui	s0,0x18
 1000fdc:	6c00                	ld	s0,24(s0)
 1000fde:	6261                	lui	tp,0x18
 1000fe0:	6c65                	lui	s8,0x19
 1000fe2:	7200                	ld	s0,32(a2)
 1000fe4:	6165                	addi	sp,sp,112
 1000fe6:	2d64                	fld	fs1,216(a0)
 1000fe8:	796c6e6f          	jal	t3,10c777e <__spl_src_start+0xba1d6>
 1000fec:	7200                	ld	s0,32(a2)
 1000fee:	7369                	lui	t1,0xffffa
 1000ff0:	6d2c7663          	bgeu	s8,s2,10016bc <__spl_start+0x564>
 1000ff4:	7861                	lui	a6,0xffff8
 1000ff6:	702d                	c.lui	zero,0xfffeb
 1000ff8:	6972                	ld	s2,280(sp)
 1000ffa:	7469726f          	jal	tp,1098740 <__spl_src_start+0x8b198>
 1000ffe:	0079                	c.nop	30
 1001000:	6972                	ld	s2,280(sp)
 1001002:	2c766373          	csrrsi	t1,0x2c7,12
 1001006:	646e                	ld	s0,216(sp)
 1001008:	7665                	lui	a2,0xffff9
 100100a:	2300                	fld	fs0,0(a4)
 100100c:	6d64                	ld	s1,216(a0)
 100100e:	2d61                	addiw	s10,s10,24
 1001010:	6c6c6563          	bltu	s8,t1,10016da <__spl_start+0x582>
 1001014:	6c780073          	0x6c780073
 1001018:	786e                	ld	a6,248(sp)
 100101a:	612c                	ld	a1,64(a0)
 100101c:	6464                	ld	s1,200(s0)
 100101e:	7772                	ld	a4,312(sp)
 1001020:	6469                	lui	s0,0x1a
 1001022:	6874                	ld	a3,208(s0)
 1001024:	7800                	ld	s0,48(s0)
 1001026:	6e6c                	ld	a1,216(a2)
 1001028:	2c78                	fld	fa4,216(s0)
 100102a:	6e69                	lui	t3,0x1a
 100102c:	64756c63          	bltu	a0,t2,1001684 <__spl_start+0x52c>
 1001030:	2d65                	addiw	s10,s10,25
 1001032:	64006773          	csrrsi	a4,0x640,0
 1001036:	616d                	addi	sp,sp,240
 1001038:	632d                	lui	t1,0xb
 100103a:	6168                	ld	a0,192(a0)
 100103c:	6e6e                	ld	t3,216(sp)
 100103e:	6c65                	lui	s8,0x19
 1001040:	6c780073          	0x6c780073
 1001044:	786e                	ld	a6,248(sp)
 1001046:	642c                	ld	a1,72(s0)
 1001048:	7461                	lui	s0,0xffff8
 100104a:	7761                	lui	a4,0xffff8
 100104c:	6469                	lui	s0,0x1a
 100104e:	6874                	ld	a3,208(s0)
 1001050:	7800                	ld	s0,48(s0)
 1001052:	6e6c                	ld	a1,216(a2)
 1001054:	2c78                	fld	fa4,216(s0)
 1001056:	6564                	ld	s1,200(a0)
 1001058:	6976                	ld	s2,344(sp)
 100105a:	692d6563          	bltu	s10,s2,10016e4 <__spl_start+0x58c>
 100105e:	0064                	addi	s1,sp,12
 1001060:	6c78                	ld	a4,216(s0)
 1001062:	786e                	ld	a6,248(sp)
 1001064:	692c                	ld	a1,80(a0)
 1001066:	636e                	ld	t1,216(sp)
 1001068:	756c                	ld	a1,232(a0)
 100106a:	6564                	ld	s1,200(a0)
 100106c:	642d                	lui	s0,0xb
 100106e:	6572                	ld	a0,280(sp)
 1001070:	6300                	ld	s0,0(a4)
 1001072:	6f6c                	ld	a1,216(a4)
 1001074:	6e2d6b63          	bltu	s10,sp,100176a <__spl_start+0x612>
 1001078:	6d61                	lui	s10,0x18
 100107a:	7365                	lui	t1,0xffff9
 100107c:	6c00                	ld	s0,24(s0)
 100107e:	6c61636f          	jal	t1,1017744 <__spl_src_start+0xa19c>
 1001082:	6d2d                	lui	s10,0xb
 1001084:	6361                	lui	t1,0x18
 1001086:	612d                	addi	sp,sp,224
 1001088:	6464                	ld	s1,200(s0)
 100108a:	6572                	ld	a0,280(sp)
 100108c:	61007373          	csrrci	t1,0x610,0
 1001090:	6978                	ld	a4,208(a0)
 1001092:	65727473          	csrrci	s0,0x657,4
 1001096:	6d61                	lui	s10,0x18
 1001098:	632d                	lui	t1,0xb
 100109a:	656e6e6f          	jal	t3,10e76f0 <__spl_src_start+0xda148>
 100109e:	64657463          	bgeu	a0,t1,10016e6 <__spl_start+0x58e>
 10010a2:	6100                	ld	s0,0(a0)
 10010a4:	6978                	ld	a4,208(a0)
 10010a6:	65727473          	csrrci	s0,0x657,4
 10010aa:	6d61                	lui	s10,0x18
 10010ac:	632d                	lui	t1,0xb
 10010ae:	72746e6f          	jal	t3,1047fd4 <__spl_src_start+0x3aa2c>
 10010b2:	632d6c6f          	jal	s8,10d76e4 <__spl_src_start+0xca13c>
 10010b6:	656e6e6f          	jal	t3,10e770c <__spl_src_start+0xda164>
 10010ba:	64657463          	bgeu	a0,t1,1001702 <__spl_start+0x5aa>
 10010be:	7000                	ld	s0,32(s0)
 10010c0:	7968                	ld	a0,240(a0)
 10010c2:	682d                	lui	a6,0xb
 10010c4:	6e61                	lui	t3,0x18
 10010c6:	6c64                	ld	s1,216(s0)
 10010c8:	0065                	c.nop	25
 10010ca:	6870                	ld	a2,208(s0)
 10010cc:	2d79                	addiw	s10,s10,30
 10010ce:	6f6d                	lui	t5,0x1b
 10010d0:	6564                	ld	s1,200(a0)
 10010d2:	7800                	ld	s0,48(s0)
 10010d4:	6e6c                	ld	a1,216(a2)
 10010d6:	2c78                	fld	fa4,216(s0)
 10010d8:	6870                	ld	a2,208(s0)
 10010da:	6179                	addi	sp,sp,464
 10010dc:	6464                	ld	s1,200(s0)
 10010de:	0072                	c.slli	zero,0x1c
 10010e0:	6c78                	ld	a4,216(s0)
 10010e2:	786e                	ld	a6,248(sp)
 10010e4:	722c                	ld	a1,96(a2)
 10010e6:	6378                	ld	a4,192(a4)
 10010e8:	006d7573          	csrrci	a0,0x6,26
 10010ec:	6c78                	ld	a4,216(s0)
 10010ee:	786e                	ld	a6,248(sp)
 10010f0:	722c                	ld	a1,96(a2)
 10010f2:	6d78                	ld	a4,216(a0)
 10010f4:	6d65                	lui	s10,0x19
 10010f6:	7800                	ld	s0,48(s0)
 10010f8:	6e6c                	ld	a1,216(a2)
 10010fa:	2c78                	fld	fa4,216(s0)
 10010fc:	7874                	ld	a3,240(s0)
 10010fe:	6d757363          	bgeu	a0,s7,10017c4 <__spl_start+0x66c>
 1001102:	7800                	ld	s0,48(s0)
 1001104:	6e6c                	ld	a1,216(a2)
 1001106:	2c78                	fld	fa4,216(s0)
 1001108:	7874                	ld	a3,240(s0)
 100110a:	656d                	lui	a0,0x1b
 100110c:	006d                	c.nop	27
 100110e:	79687023          	0x79687023
 1001112:	632d                	lui	t1,0xb
 1001114:	6c65                	lui	s8,0x19
 1001116:	736c                	ld	a1,224(a4)
 1001118:	7400                	ld	s0,40(s0)
 100111a:	2c69                	addiw	s8,s8,26
 100111c:	696d6773          	csrrsi	a4,0x696,26
 1001120:	2d69                	addiw	s10,s10,26
 1001122:	6572                	ld	a0,280(sp)
 1001124:	2d66                	fld	fs10,88(sp)
 1001126:	636f6c63          	bltu	t5,s6,100175e <__spl_start+0x606>
 100112a:	756f2d6b          	0x756f2d6b
 100112e:	7074                	ld	a3,224(s0)
 1001130:	7475                	lui	s0,0xffffd
 1001132:	652d                	lui	a0,0xb
 1001134:	616e                	ld	sp,216(sp)
 1001136:	6c62                	ld	s8,24(sp)
 1001138:	0065                	c.nop	25
 100113a:	6974                	ld	a3,208(a0)
 100113c:	642c                	ld	a1,72(s0)
 100113e:	3870                	fld	fa2,240(s0)
 1001140:	37363833          	0x37363833
 1001144:	722d                	lui	tp,0xfffeb
 1001146:	6378                	ld	a4,192(a4)
 1001148:	7274                	ld	a3,224(a2)
 100114a:	2d6c                	fld	fa1,216(a0)
 100114c:	61727473          	csrrci	s0,0x617,4
 1001150:	2d70                	fld	fa2,216(a0)
 1001152:	7571                	lui	a0,0xffffc
 1001154:	7269                	lui	tp,0xffffa
 1001156:	          	0x6b

0000000001001158 <__spl_start>:
 1001158:	f1402573          	csrr	a0,mhartid
 100115c:	822a                	mv	tp,a0
 100115e:	84ae                	mv	s1,a1
 1001160:	00000193          	li	gp,0
 1001164:	0000b297          	auipc	t0,0xb
 1001168:	49c2b283          	ld	t0,1180(t0) # 100c600 <__spl_start+0xb4a8>
 100116c:	30529073          	csrw	mtvec,t0
 1001170:	30401073          	csrw	mie,zero
 1001174:	42a1                	li	t0,8
 1001176:	22525c63          	bge	tp,t0,10013ae <__spl_start+0x256>
 100117a:	42a1                	li	t0,8
 100117c:	3042a073          	csrs	mie,t0
 1001180:	52c1                	li	t0,-16
 1001182:	70018337          	lui	t1,0x70018
 1001186:	00537133          	and	sp,t1,t0
 100118a:	850a                	mv	a0,sp
 100118c:	18b010ef          	jal	ra,1002b16 <__spl_start+0x19be>
 1001190:	842a                	mv	s0,a0
 1001192:	00e21293          	slli	t0,tp,0xe
 1001196:	40550133          	sub	sp,a0,t0
 100119a:	2f2000ef          	jal	ra,100148c <__spl_start+0x334>
 100119e:	0000b297          	auipc	t0,0xb
 10011a2:	4c22b283          	ld	t0,1218(t0) # 100c660 <__spl_start+0xb508>
 10011a6:	4305                	li	t1,1
 10011a8:	0862a92f          	amoswap.w	s2,t1,(t0)
 10011ac:	02091463          	bnez	s2,10011d4 <__spl_start+0x7c>
 10011b0:	0000b297          	auipc	t0,0xb
 10011b4:	4882b283          	ld	t0,1160(t0) # 100c638 <__spl_start+0xb4e0>
 10011b8:	0092b023          	sd	s1,0(t0)
 10011bc:	167010ef          	jal	ra,1002b22 <__spl_start+0x19ca>
 10011c0:	1491b423          	sd	s1,328(gp)
 10011c4:	1441b023          	sd	tp,320(gp)
 10011c8:	0000b297          	auipc	t0,0xb
 10011cc:	3982b283          	ld	t0,920(t0) # 100c560 <__spl_start+0xb408>
 10011d0:	0a02a02f          	amoswap.w.rl	zero,zero,(t0)
 10011d4:	0000b297          	auipc	t0,0xb
 10011d8:	38c2b283          	ld	t0,908(t0) # 100c560 <__spl_start+0xb408>
 10011dc:	4305                	li	t1,1
 10011de:	0c62a32f          	amoswap.w.aq	t1,t1,(t0)
 10011e2:	fe031ee3          	bnez	t1,10011de <__spl_start+0x86>
 10011e6:	81a2                	mv	gp,s0
 10011e8:	4305                	li	t1,1
 10011ea:	00431333          	sll	t1,t1,tp
 10011ee:	2581b383          	ld	t2,600(gp)
 10011f2:	0063e3b3          	or	t2,t2,t1
 10011f6:	2471bc23          	sd	t2,600(gp)
 10011fa:	0a02a02f          	amoswap.w.rl	zero,zero,(t0)
 10011fe:	1c091063          	bnez	s2,10013be <__spl_start+0x266>
 1001202:	332000ef          	jal	ra,1001534 <__spl_start+0x3dc>
 1001206:	330000ef          	jal	ra,1001536 <__spl_start+0x3de>
 100120a:	00000513          	li	a0,0
 100120e:	0000bf17          	auipc	t5,0xb
 1001212:	40af3f03          	ld	t5,1034(t5) # 100c618 <__spl_start+0xb4c0>
 1001216:	9f02                	jalr	t5
 1001218:	0000b297          	auipc	t0,0xb
 100121c:	3e02b283          	ld	t0,992(t0) # 100c5f8 <__spl_start+0xb4a0>
 1001220:	0000b317          	auipc	t1,0xb
 1001224:	3a033303          	ld	t1,928(t1) # 100c5c0 <__spl_start+0xb468>
 1001228:	00628763          	beq	t0,t1,1001236 <__spl_start+0xde>
 100122c:	0002b023          	sd	zero,0(t0)
 1001230:	02a1                	addi	t0,t0,8
 1001232:	fe62cde3          	blt	t0,t1,100122c <__spl_start+0xd4>
 1001236:	4ff000ef          	jal	ra,1001f34 <__spl_start+0xddc>
 100123a:	c91d                	beqz	a0,1001270 <__spl_start+0x118>
 100123c:	842a                	mv	s0,a0
 100123e:	00e21293          	slli	t0,tp,0xe
 1001242:	40540133          	sub	sp,s0,t0
 1001246:	0000b517          	auipc	a0,0xb
 100124a:	2ea53503          	ld	a0,746(a0) # 100c530 <__spl_start+0xb3d8>
 100124e:	85a2                	mv	a1,s0
 1001250:	8622                	mv	a2,s0
 1001252:	00000693          	li	a3,0
 1001256:	4f2000ef          	jal	ra,1001748 <__spl_start+0x5f0>
 100125a:	c911                	beqz	a0,100126e <__spl_start+0x116>
 100125c:	85aa                	mv	a1,a0
 100125e:	0000b517          	auipc	a0,0xb
 1001262:	2ca53503          	ld	a0,714(a0) # 100c528 <__spl_start+0xb3d0>
 1001266:	46a040ef          	jal	ra,10056d0 <__spl_start+0x4578>
 100126a:	6ad030ef          	jal	ra,1005116 <__spl_start+0x3fbe>
 100126e:	81a2                	mv	gp,s0
 1001270:	00000513          	li	a0,0
 1001274:	00000593          	li	a1,0
 1001278:	2ff000ef          	jal	ra,1001d76 <__spl_start+0xc1e>
 100127c:	892a                	mv	s2,a0
 100127e:	89ae                	mv	s3,a1
 1001280:	8a32                	mv	s4,a2
 1001282:	00e21293          	slli	t0,tp,0xe
 1001286:	40590133          	sub	sp,s2,t0
 100128a:	0000b297          	auipc	t0,0xb
 100128e:	34e2b283          	ld	t0,846(t0) # 100c5d8 <__spl_start+0xb480>
 1001292:	405a0fb3          	sub	t6,s4,t0
 1001296:	0b428663          	beq	t0,s4,1001342 <__spl_start+0x1ea>
 100129a:	8352                	mv	t1,s4
 100129c:	0000be17          	auipc	t3,0xb
 10012a0:	35ce3e03          	ld	t3,860(t3) # 100c5f8 <__spl_start+0xb4a0>
 10012a4:	405e0e33          	sub	t3,t3,t0
 10012a8:	01c283b3          	add	t2,t0,t3
 10012ac:	0002bf03          	ld	t5,0(t0)
 10012b0:	02a1                	addi	t0,t0,8
 10012b2:	01e33023          	sd	t5,0(t1)
 10012b6:	0321                	addi	t1,t1,8
 10012b8:	fe72cae3          	blt	t0,t2,10012ac <__spl_start+0x154>
 10012bc:	0000b317          	auipc	t1,0xb
 10012c0:	28c33303          	ld	t1,652(t1) # 100c548 <__spl_start+0xb3f0>
 10012c4:	0000b397          	auipc	t2,0xb
 10012c8:	38c3b383          	ld	t2,908(t2) # 100c650 <__spl_start+0xb4f8>
 10012cc:	06730b63          	beq	t1,t2,1001342 <__spl_start+0x1ea>
 10012d0:	937e                	add	t1,t1,t6
 10012d2:	93fe                	add	t2,t2,t6
 10012d4:	a8a9                	j	100132e <__spl_start+0x1d6>
 10012d6:	ff033f03          	ld	t5,-16(t1)
 10012da:	4e0d                	li	t3,3
 10012dc:	01cf1b63          	bne	t5,t3,10012f2 <__spl_start+0x19a>
 10012e0:	fe833e03          	ld	t3,-24(t1)
 10012e4:	ff833f03          	ld	t5,-8(t1)
 10012e8:	9f7e                	add	t5,t5,t6
 10012ea:	9e7e                	add	t3,t3,t6
 10012ec:	01ee3023          	sd	t5,0(t3)
 10012f0:	a83d                	j	100132e <__spl_start+0x1d6>
 10012f2:	0000be97          	auipc	t4,0xb
 10012f6:	366ebe83          	ld	t4,870(t4) # 100c658 <__spl_start+0xb500>
 10012fa:	9efe                	add	t4,t4,t6
 10012fc:	ff033f03          	ld	t5,-16(t1)
 1001300:	020f5293          	srli	t0,t5,0x20
 1001304:	0fff7f13          	zext.b	t5,t5
 1001308:	4e09                	li	t3,2
 100130a:	03cf1263          	bne	t5,t3,100132e <__spl_start+0x1d6>
 100130e:	fe833e03          	ld	t3,-24(t1)
 1001312:	4f61                	li	t5,24
 1001314:	03e282b3          	mul	t0,t0,t5
 1001318:	005e8ab3          	add	s5,t4,t0
 100131c:	ff833283          	ld	t0,-8(t1)
 1001320:	008abf03          	ld	t5,8(s5)
 1001324:	9f16                	add	t5,t5,t0
 1001326:	9f7e                	add	t5,t5,t6
 1001328:	9e7e                	add	t3,t3,t6
 100132a:	01ee3023          	sd	t5,0(t3)
 100132e:	0361                	addi	t1,t1,24
 1001330:	fa63d3e3          	bge	t2,t1,10012d6 <__spl_start+0x17e>
 1001334:	0000b297          	auipc	t0,0xb
 1001338:	2cc2b283          	ld	t0,716(t0) # 100c600 <__spl_start+0xb4a8>
 100133c:	92fe                	add	t0,t0,t6
 100133e:	30529073          	csrw	mtvec,t0
 1001342:	0000b297          	auipc	t0,0xb
 1001346:	2b62b283          	ld	t0,694(t0) # 100c5f8 <__spl_start+0xb4a0>
 100134a:	92fe                	add	t0,t0,t6
 100134c:	0000b317          	auipc	t1,0xb
 1001350:	27433303          	ld	t1,628(t1) # 100c5c0 <__spl_start+0xb468>
 1001354:	937e                	add	t1,t1,t6
 1001356:	00628763          	beq	t0,t1,1001364 <__spl_start+0x20c>
 100135a:	0002b023          	sd	zero,0(t0)
 100135e:	02a1                	addi	t0,t0,8
 1001360:	fe62cde3          	blt	t0,t1,100135a <__spl_start+0x202>
 1001364:	0000b297          	auipc	t0,0xb
 1001368:	1cc2b283          	ld	t0,460(t0) # 100c530 <__spl_start+0xb3d8>
 100136c:	01f28533          	add	a0,t0,t6
 1001370:	8afe                	mv	s5,t6
 1001372:	85ca                	mv	a1,s2
 1001374:	864e                	mv	a2,s3
 1001376:	00000693          	li	a3,0
 100137a:	3ce000ef          	jal	ra,1001748 <__spl_start+0x5f0>
 100137e:	c911                	beqz	a0,1001392 <__spl_start+0x23a>
 1001380:	85aa                	mv	a1,a0
 1001382:	0000b517          	auipc	a0,0xb
 1001386:	1a653503          	ld	a0,422(a0) # 100c528 <__spl_start+0xb3d0>
 100138a:	346040ef          	jal	ra,10056d0 <__spl_start+0x4578>
 100138e:	589030ef          	jal	ra,1005116 <__spl_start+0x3fbe>
 1001392:	8fd6                	mv	t6,s5
 1001394:	196000ef          	jal	ra,100152a <__spl_start+0x3d2>
 1001398:	198000ef          	jal	ra,1001530 <__spl_start+0x3d8>
 100139c:	0000b297          	auipc	t0,0xb
 10013a0:	22c2b283          	ld	t0,556(t0) # 100c5c8 <__spl_start+0xb470>
 10013a4:	01f28eb3          	add	t4,t0,t6
 10013a8:	854e                	mv	a0,s3
 10013aa:	85d2                	mv	a1,s4
 10013ac:	8e82                	jr	t4
 10013ae:	10500073          	wfi
 10013b2:	bff5                	j	10013ae <__spl_start+0x256>
 10013b4:	00e21293          	slli	t0,tp,0xe
 10013b8:	40558133          	sub	sp,a1,t0
 10013bc:	81b2                	mv	gp,a2
 10013be:	10500073          	wfi
 10013c2:	344022f3          	csrr	t0,mip
 10013c6:	0082f293          	andi	t0,t0,8
 10013ca:	fe028ae3          	beqz	t0,10013be <__spl_start+0x266>
 10013ce:	8512                	mv	a0,tp
 10013d0:	2ec000ef          	jal	ra,10016bc <__spl_start+0x564>
 10013d4:	b7ed                	j	10013be <__spl_start+0x266>
 10013d6:	8082                	ret
 10013d8:	7139                	addi	sp,sp,-64
 10013da:	fc06                	sd	ra,56(sp)
 10013dc:	f822                	sd	s0,48(sp)
 10013de:	15c070ef          	jal	ra,100853a <__spl_start+0x73e2>
 10013e2:	e14d                	bnez	a0,1001484 <__spl_start+0x32c>
 10013e4:	0020                	addi	s0,sp,8
 10013e6:	85a2                	mv	a1,s0
 10013e8:	456d                	li	a0,27
 10013ea:	62f040ef          	jal	ra,1006218 <__spl_start+0x50c0>
 10013ee:	6522                	ld	a0,8(sp)
 10013f0:	e939                	bnez	a0,1001446 <__spl_start+0x2ee>
 10013f2:	85a2                	mv	a1,s0
 10013f4:	456d                	li	a0,27
 10013f6:	623040ef          	jal	ra,1006218 <__spl_start+0x50c0>
 10013fa:	6522                	ld	a0,8(sp)
 10013fc:	e53d                	bnez	a0,100146a <__spl_start+0x312>
 10013fe:	3063d073          	csrwi	mcounteren,7
 1001402:	456d                	li	a0,27
 1001404:	85a2                	mv	a1,s0
 1001406:	613040ef          	jal	ra,1006218 <__spl_start+0x50c0>
 100140a:	6522                	ld	a0,8(sp)
 100140c:	cd19                	beqz	a0,100142a <__spl_start+0x2d2>
 100140e:	02000613          	li	a2,32
 1001412:	080c                	addi	a1,sp,16
 1001414:	1be070ef          	jal	ra,10085d2 <__spl_start+0x747a>
 1001418:	e909                	bnez	a0,100142a <__spl_start+0x2d2>
 100141a:	07300593          	li	a1,115
 100141e:	0848                	addi	a0,sp,20
 1001420:	5b5030ef          	jal	ra,10051d4 <__spl_start+0x407c>
 1001424:	c119                	beqz	a0,100142a <__spl_start+0x2d2>
 1001426:	18005073          	csrwi	satp,0
 100142a:	10e000ef          	jal	ra,1001538 <__spl_start+0x3e0>
 100142e:	e939                	bnez	a0,1001484 <__spl_start+0x32c>
 1001430:	7442                	ld	s0,48(sp)
 1001432:	70e2                	ld	ra,56(sp)
 1001434:	4681                	li	a3,0
 1001436:	4601                	li	a2,0
 1001438:	4581                	li	a1,0
 100143a:	00000517          	auipc	a0,0x0
 100143e:	f9c50513          	addi	a0,a0,-100 # 10013d6 <__spl_start+0x27e>
 1001442:	6121                	addi	sp,sp,64
 1001444:	a611                	j	1001748 <__spl_start+0x5f0>
 1001446:	02000613          	li	a2,32
 100144a:	080c                	addi	a1,sp,16
 100144c:	186070ef          	jal	ra,10085d2 <__spl_start+0x747a>
 1001450:	f14d                	bnez	a0,10013f2 <__spl_start+0x29a>
 1001452:	06400593          	li	a1,100
 1001456:	0848                	addi	a0,sp,20
 1001458:	57d030ef          	jal	ra,10051d4 <__spl_start+0x407c>
 100145c:	d959                	beqz	a0,10013f2 <__spl_start+0x29a>
 100145e:	6799                	lui	a5,0x6
 1001460:	3007a073          	csrs	mstatus,a5
 1001464:	00305073          	csrwi	fcsr,0
 1001468:	bf59                	j	10013fe <__spl_start+0x2a6>
 100146a:	02000613          	li	a2,32
 100146e:	080c                	addi	a1,sp,16
 1001470:	162070ef          	jal	ra,10085d2 <__spl_start+0x747a>
 1001474:	f549                	bnez	a0,10013fe <__spl_start+0x2a6>
 1001476:	06600593          	li	a1,102
 100147a:	0848                	addi	a0,sp,20
 100147c:	559030ef          	jal	ra,10051d4 <__spl_start+0x407c>
 1001480:	fd79                	bnez	a0,100145e <__spl_start+0x306>
 1001482:	bfb5                	j	10013fe <__spl_start+0x2a6>
 1001484:	70e2                	ld	ra,56(sp)
 1001486:	7442                	ld	s0,48(sp)
 1001488:	6121                	addi	sp,sp,64
 100148a:	8082                	ret
 100148c:	8082                	ret
 100148e:	0000                	unimp
 1001490:	7111                	addi	sp,sp,-256
 1001492:	e406                	sd	ra,8(sp)
 1001494:	e80a                	sd	sp,16(sp)
 1001496:	ec0e                	sd	gp,24(sp)
 1001498:	f012                	sd	tp,32(sp)
 100149a:	f416                	sd	t0,40(sp)
 100149c:	f81a                	sd	t1,48(sp)
 100149e:	fc1e                	sd	t2,56(sp)
 10014a0:	e0a2                	sd	s0,64(sp)
 10014a2:	e4a6                	sd	s1,72(sp)
 10014a4:	e8aa                	sd	a0,80(sp)
 10014a6:	ecae                	sd	a1,88(sp)
 10014a8:	f0b2                	sd	a2,96(sp)
 10014aa:	f4b6                	sd	a3,104(sp)
 10014ac:	f8ba                	sd	a4,112(sp)
 10014ae:	fcbe                	sd	a5,120(sp)
 10014b0:	e142                	sd	a6,128(sp)
 10014b2:	e546                	sd	a7,136(sp)
 10014b4:	e94a                	sd	s2,144(sp)
 10014b6:	ed4e                	sd	s3,152(sp)
 10014b8:	f152                	sd	s4,160(sp)
 10014ba:	f556                	sd	s5,168(sp)
 10014bc:	f95a                	sd	s6,176(sp)
 10014be:	fd5e                	sd	s7,184(sp)
 10014c0:	e1e2                	sd	s8,192(sp)
 10014c2:	e5e6                	sd	s9,200(sp)
 10014c4:	e9ea                	sd	s10,208(sp)
 10014c6:	edee                	sd	s11,216(sp)
 10014c8:	f1f2                	sd	t3,224(sp)
 10014ca:	f5f6                	sd	t4,232(sp)
 10014cc:	f9fa                	sd	t5,240(sp)
 10014ce:	fdfe                	sd	t6,248(sp)
 10014d0:	34202573          	csrr	a0,mcause
 10014d4:	341025f3          	csrr	a1,mepc
 10014d8:	34302673          	csrr	a2,mtval
 10014dc:	868a                	mv	a3,sp
 10014de:	15c000ef          	jal	ra,100163a <__spl_start+0x4e2>
 10014e2:	34151073          	csrw	mepc,a0
 10014e6:	60a2                	ld	ra,8(sp)
 10014e8:	61e2                	ld	gp,24(sp)
 10014ea:	7202                	ld	tp,32(sp)
 10014ec:	72a2                	ld	t0,40(sp)
 10014ee:	7342                	ld	t1,48(sp)
 10014f0:	73e2                	ld	t2,56(sp)
 10014f2:	6406                	ld	s0,64(sp)
 10014f4:	64a6                	ld	s1,72(sp)
 10014f6:	6546                	ld	a0,80(sp)
 10014f8:	65e6                	ld	a1,88(sp)
 10014fa:	7606                	ld	a2,96(sp)
 10014fc:	76a6                	ld	a3,104(sp)
 10014fe:	7746                	ld	a4,112(sp)
 1001500:	77e6                	ld	a5,120(sp)
 1001502:	680a                	ld	a6,128(sp)
 1001504:	68aa                	ld	a7,136(sp)
 1001506:	694a                	ld	s2,144(sp)
 1001508:	69ea                	ld	s3,152(sp)
 100150a:	7a0a                	ld	s4,160(sp)
 100150c:	7aaa                	ld	s5,168(sp)
 100150e:	7b4a                	ld	s6,176(sp)
 1001510:	7bea                	ld	s7,184(sp)
 1001512:	6c0e                	ld	s8,192(sp)
 1001514:	6cae                	ld	s9,200(sp)
 1001516:	6d4e                	ld	s10,208(sp)
 1001518:	6dee                	ld	s11,216(sp)
 100151a:	7e0e                	ld	t3,224(sp)
 100151c:	7eae                	ld	t4,232(sp)
 100151e:	7f4e                	ld	t5,240(sp)
 1001520:	7fee                	ld	t6,248(sp)
 1001522:	6142                	ld	sp,16(sp)
 1001524:	6111                	addi	sp,sp,256
 1001526:	30200073          	mret
 100152a:	0000100f          	fence.i
 100152e:	8082                	ret
 1001530:	8082                	ret
 1001532:	8082                	ret
 1001534:	8082                	ret
 1001536:	8082                	ret
 1001538:	7179                	addi	sp,sp,-48
 100153a:	0030                	addi	a2,sp,8
 100153c:	0000b597          	auipc	a1,0xb
 1001540:	02c5b583          	ld	a1,44(a1) # 100c568 <__spl_start+0xb410>
 1001544:	06300513          	li	a0,99
 1001548:	f022                	sd	s0,32(sp)
 100154a:	f406                	sd	ra,40(sp)
 100154c:	ec26                	sd	s1,24(sp)
 100154e:	65f040ef          	jal	ra,10063ac <__spl_start+0x5254>
 1001552:	842a                	mv	s0,a0
 1001554:	e919                	bnez	a0,100156a <__spl_start+0x412>
 1001556:	6522                	ld	a0,8(sp)
 1001558:	848e                	mv	s1,gp
 100155a:	702040ef          	jal	ra,1005c5c <__spl_start+0x4b04>
 100155e:	14a4b823          	sd	a0,336(s1)
 1001562:	1501b783          	ld	a5,336(gp)
 1001566:	e391                	bnez	a5,100156a <__spl_start+0x412>
 1001568:	5429                	li	s0,-22
 100156a:	70a2                	ld	ra,40(sp)
 100156c:	8522                	mv	a0,s0
 100156e:	7402                	ld	s0,32(sp)
 1001570:	64e2                	ld	s1,24(sp)
 1001572:	6145                	addi	sp,sp,48
 1001574:	8082                	ret
 1001576:	1501b783          	ld	a5,336(gp)
 100157a:	0025151b          	slliw	a0,a0,0x2
 100157e:	97aa                	add	a5,a5,a0
 1001580:	0550000f          	fence	ow,ow
 1001584:	4705                	li	a4,1
 1001586:	c398                	sw	a4,0(a5)
 1001588:	4501                	li	a0,0
 100158a:	8082                	ret
 100158c:	1501b783          	ld	a5,336(gp)
 1001590:	0025151b          	slliw	a0,a0,0x2
 1001594:	97aa                	add	a5,a5,a0
 1001596:	0550000f          	fence	ow,ow
 100159a:	4501                	li	a0,0
 100159c:	0007a023          	sw	zero,0(a5) # 6000 <_start-0xffa000>
 10015a0:	8082                	ret
 10015a2:	1501b783          	ld	a5,336(gp)
 10015a6:	0025151b          	slliw	a0,a0,0x2
 10015aa:	97aa                	add	a5,a5,a0
 10015ac:	439c                	lw	a5,0(a5)
 10015ae:	0aa0000f          	fence	ir,ir
 10015b2:	4501                	li	a0,0
 10015b4:	c19c                	sw	a5,0(a1)
 10015b6:	8082                	ret
 10015b8:	1101                	addi	sp,sp,-32
 10015ba:	e822                	sd	s0,16(sp)
 10015bc:	e426                	sd	s1,8(sp)
 10015be:	e04a                	sd	s2,0(sp)
 10015c0:	ec06                	sd	ra,24(sp)
 10015c2:	47bd                	li	a5,15
 10015c4:	842e                	mv	s0,a1
 10015c6:	8932                	mv	s2,a2
 10015c8:	84b6                	mv	s1,a3
 10015ca:	06a7e063          	bltu	a5,a0,100162a <__spl_start+0x4d2>
 10015ce:	050e                	slli	a0,a0,0x3
 10015d0:	0000a797          	auipc	a5,0xa
 10015d4:	1f878793          	addi	a5,a5,504 # 100b7c8 <__spl_start+0xa670>
 10015d8:	97aa                	add	a5,a5,a0
 10015da:	638c                	ld	a1,0(a5)
 10015dc:	00007517          	auipc	a0,0x7
 10015e0:	40450513          	addi	a0,a0,1028 # 10089e0 <__spl_start+0x7888>
 10015e4:	0ec040ef          	jal	ra,10056d0 <__spl_start+0x4578>
 10015e8:	6490                	ld	a2,8(s1)
 10015ea:	86ca                	mv	a3,s2
 10015ec:	85a2                	mv	a1,s0
 10015ee:	00007517          	auipc	a0,0x7
 10015f2:	43250513          	addi	a0,a0,1074 # 1008a20 <__spl_start+0x78c8>
 10015f6:	0da040ef          	jal	ra,10056d0 <__spl_start+0x4578>
 10015fa:	02018263          	beqz	gp,100161e <__spl_start+0x4c6>
 10015fe:	0081b703          	ld	a4,8(gp)
 1001602:	8b05                	andi	a4,a4,1
 1001604:	cf09                	beqz	a4,100161e <__spl_start+0x4c6>
 1001606:	0981b583          	ld	a1,152(gp)
 100160a:	6490                	ld	a2,8(s1)
 100160c:	00007517          	auipc	a0,0x7
 1001610:	43c50513          	addi	a0,a0,1084 # 1008a48 <__spl_start+0x78f0>
 1001614:	8e0d                	sub	a2,a2,a1
 1001616:	40b405b3          	sub	a1,s0,a1
 100161a:	0b6040ef          	jal	ra,10056d0 <__spl_start+0x4578>
 100161e:	00008517          	auipc	a0,0x8
 1001622:	99250513          	addi	a0,a0,-1646 # 1008fb0 <__spl_start+0x7e58>
 1001626:	589030ef          	jal	ra,10053ae <__spl_start+0x4256>
 100162a:	85aa                	mv	a1,a0
 100162c:	00007517          	auipc	a0,0x7
 1001630:	3d450513          	addi	a0,a0,980 # 1008a00 <__spl_start+0x78a8>
 1001634:	bf45                	j	10015e4 <__spl_start+0x48c>
 1001636:	8082                	ret
 1001638:	8082                	ret
 100163a:	1141                	addi	sp,sp,-16
 100163c:	e406                	sd	ra,8(sp)
 100163e:	e022                	sd	s0,0(sp)
 1001640:	04055c63          	bgez	a0,1001698 <__spl_start+0x540>
 1001644:	00151713          	slli	a4,a0,0x1
 1001648:	88b6                	mv	a7,a3
 100164a:	8305                	srli	a4,a4,0x1
 100164c:	46a5                	li	a3,9
 100164e:	842e                	mv	s0,a1
 1001650:	02d70563          	beq	a4,a3,100167a <__spl_start+0x522>
 1001654:	87aa                	mv	a5,a0
 1001656:	8832                	mv	a6,a2
 1001658:	00e6ee63          	bltu	a3,a4,1001674 <__spl_start+0x51c>
 100165c:	576d                	li	a4,-5
 100165e:	8305                	srli	a4,a4,0x1
 1001660:	8f69                	and	a4,a4,a0
 1001662:	4695                	li	a3,5
 1001664:	02d71663          	bne	a4,a3,1001690 <__spl_start+0x538>
 1001668:	4501                	li	a0,0
 100166a:	0000b317          	auipc	t1,0xb
 100166e:	fbe33303          	ld	t1,-66(t1) # 100c628 <__spl_start+0xb4d0>
 1001672:	a809                	j	1001684 <__spl_start+0x52c>
 1001674:	46ad                	li	a3,11
 1001676:	00d71d63          	bne	a4,a3,1001690 <__spl_start+0x538>
 100167a:	4501                	li	a0,0
 100167c:	0000b317          	auipc	t1,0xb
 1001680:	efc33303          	ld	t1,-260(t1) # 100c578 <__spl_start+0xb420>
 1001684:	9302                	jalr	t1
 1001686:	60a2                	ld	ra,8(sp)
 1001688:	8522                	mv	a0,s0
 100168a:	6402                	ld	s0,0(sp)
 100168c:	0141                	addi	sp,sp,16
 100168e:	8082                	ret
 1001690:	86c6                	mv	a3,a7
 1001692:	8642                	mv	a2,a6
 1001694:	85a2                	mv	a1,s0
 1001696:	853e                	mv	a0,a5
 1001698:	f21ff0ef          	jal	ra,10015b8 <__spl_start+0x460>
 100169c:	1141                	addi	sp,sp,-16
 100169e:	00007517          	auipc	a0,0x7
 10016a2:	61a50513          	addi	a0,a0,1562 # 1008cb8 <__spl_start+0x7b60>
 10016a6:	e406                	sd	ra,8(sp)
 10016a8:	028040ef          	jal	ra,10056d0 <__spl_start+0x4578>
 10016ac:	00007517          	auipc	a0,0x7
 10016b0:	61c50513          	addi	a0,a0,1564 # 1008cc8 <__spl_start+0x7b70>
 10016b4:	01c040ef          	jal	ra,10056d0 <__spl_start+0x4578>
 10016b8:	25f030ef          	jal	ra,1005116 <__spl_start+0x3fbe>
 10016bc:	479d                	li	a5,7
 10016be:	08a7e463          	bltu	a5,a0,1001746 <__spl_start+0x5ee>
 10016c2:	7179                	addi	sp,sp,-48
 10016c4:	ec26                	sd	s1,24(sp)
 10016c6:	00b50493          	addi	s1,a0,11
 10016ca:	0496                	slli	s1,s1,0x5
 10016cc:	f022                	sd	s0,32(sp)
 10016ce:	f406                	sd	ra,40(sp)
 10016d0:	e84a                	sd	s2,16(sp)
 10016d2:	e44e                	sd	s3,8(sp)
 10016d4:	009187b3          	add	a5,gp,s1
 10016d8:	4b9c                	lw	a5,16(a5)
 10016da:	842a                	mv	s0,a0
 10016dc:	2781                	sext.w	a5,a5
 10016de:	0230000f          	fence	r,rw
 10016e2:	cbb9                	beqz	a5,1001738 <__spl_start+0x5e0>
 10016e4:	00551913          	slli	s2,a0,0x5
 10016e8:	003907b3          	add	a5,s2,gp
 10016ec:	1587b983          	ld	s3,344(a5)
 10016f0:	e3bff0ef          	jal	ra,100152a <__spl_start+0x3d2>
 10016f4:	0004051b          	sext.w	a0,s0
 10016f8:	e95ff0ef          	jal	ra,100158c <__spl_start+0x434>
 10016fc:	862a                	mv	a2,a0
 10016fe:	cd11                	beqz	a0,100171a <__spl_start+0x5c2>
 1001700:	85a2                	mv	a1,s0
 1001702:	7402                	ld	s0,32(sp)
 1001704:	70a2                	ld	ra,40(sp)
 1001706:	64e2                	ld	s1,24(sp)
 1001708:	6942                	ld	s2,16(sp)
 100170a:	69a2                	ld	s3,8(sp)
 100170c:	00008517          	auipc	a0,0x8
 1001710:	84c50513          	addi	a0,a0,-1972 # 1008f58 <__spl_start+0x7e00>
 1001714:	6145                	addi	sp,sp,48
 1001716:	7bb0306f          	j	10056d0 <__spl_start+0x4578>
 100171a:	012187b3          	add	a5,gp,s2
 100171e:	948e                	add	s1,s1,gp
 1001720:	8522                	mv	a0,s0
 1001722:	7402                	ld	s0,32(sp)
 1001724:	6490                	ld	a2,8(s1)
 1001726:	1607b583          	ld	a1,352(a5)
 100172a:	70a2                	ld	ra,40(sp)
 100172c:	64e2                	ld	s1,24(sp)
 100172e:	6942                	ld	s2,16(sp)
 1001730:	87ce                	mv	a5,s3
 1001732:	69a2                	ld	s3,8(sp)
 1001734:	6145                	addi	sp,sp,48
 1001736:	8782                	jr	a5
 1001738:	70a2                	ld	ra,40(sp)
 100173a:	7402                	ld	s0,32(sp)
 100173c:	64e2                	ld	s1,24(sp)
 100173e:	6942                	ld	s2,16(sp)
 1001740:	69a2                	ld	s3,8(sp)
 1001742:	6145                	addi	sp,sp,48
 1001744:	8082                	ret
 1001746:	8082                	ret
 1001748:	7175                	addi	sp,sp,-144
 100174a:	fca6                	sd	s1,120(sp)
 100174c:	84aa                	mv	s1,a0
 100174e:	00008517          	auipc	a0,0x8
 1001752:	98250513          	addi	a0,a0,-1662 # 10090d0 <__spl_start+0x7f78>
 1001756:	f8ca                	sd	s2,112(sp)
 1001758:	f4ce                	sd	s3,104(sp)
 100175a:	f0d2                	sd	s4,96(sp)
 100175c:	e506                	sd	ra,136(sp)
 100175e:	e122                	sd	s0,128(sp)
 1001760:	ecd6                	sd	s5,88(sp)
 1001762:	e8da                	sd	s6,80(sp)
 1001764:	e4de                	sd	s7,72(sp)
 1001766:	e0e2                	sd	s8,64(sp)
 1001768:	fc66                	sd	s9,56(sp)
 100176a:	f86a                	sd	s10,48(sp)
 100176c:	f46e                	sd	s11,40(sp)
 100176e:	892e                	mv	s2,a1
 1001770:	89b2                	mv	s3,a2
 1001772:	8a36                	mv	s4,a3
 1001774:	7c5040ef          	jal	ra,1006738 <__spl_start+0x55e0>
 1001778:	02055963          	bgez	a0,10017aa <__spl_start+0x652>
 100177c:	00008517          	auipc	a0,0x8
 1001780:	95c50513          	addi	a0,a0,-1700 # 10090d8 <__spl_start+0x7f80>
 1001784:	74d030ef          	jal	ra,10056d0 <__spl_start+0x4578>
 1001788:	57a9                	li	a5,-22
 100178a:	60aa                	ld	ra,136(sp)
 100178c:	640a                	ld	s0,128(sp)
 100178e:	74e6                	ld	s1,120(sp)
 1001790:	7946                	ld	s2,112(sp)
 1001792:	79a6                	ld	s3,104(sp)
 1001794:	7a06                	ld	s4,96(sp)
 1001796:	6ae6                	ld	s5,88(sp)
 1001798:	6b46                	ld	s6,80(sp)
 100179a:	6ba6                	ld	s7,72(sp)
 100179c:	6c06                	ld	s8,64(sp)
 100179e:	7ce2                	ld	s9,56(sp)
 10017a0:	7d42                	ld	s10,48(sp)
 10017a2:	7da2                	ld	s11,40(sp)
 10017a4:	853e                	mv	a0,a5
 10017a6:	6149                	addi	sp,sp,144
 10017a8:	8082                	ret
 10017aa:	0005059b          	sext.w	a1,a0
 10017ae:	0d81b503          	ld	a0,216(gp)
 10017b2:	72a020ef          	jal	ra,1003edc <__spl_start+0x2d84>
 10017b6:	0005041b          	sext.w	s0,a0
 10017ba:	00055363          	bgez	a0,10017c0 <__spl_start+0x668>
 10017be:	547d                	li	s0,-1
 10017c0:	01810b13          	addi	s6,sp,24 # 30303018 <__spl_src_start+0x2f2f5a70>
 10017c4:	00008b97          	auipc	s7,0x8
 10017c8:	92cb8b93          	addi	s7,s7,-1748 # 10090f0 <__spl_start+0x7f98>
 10017cc:	4c1d                	li	s8,7
 10017ce:	4c85                	li	s9,1
 10017d0:	4a85                	li	s5,1
 10017d2:	01c10d13          	addi	s10,sp,28
 10017d6:	00008d97          	auipc	s11,0x8
 10017da:	922d8d93          	addi	s11,s11,-1758 # 10090f8 <__spl_start+0x7fa0>
 10017de:	57fd                	li	a5,-1
 10017e0:	00f41463          	bne	s0,a5,10017e8 <__spl_start+0x690>
 10017e4:	4781                	li	a5,0
 10017e6:	b755                	j	100178a <__spl_start+0x632>
 10017e8:	8522                	mv	a0,s0
 10017ea:	7d1040ef          	jal	ra,10067ba <__spl_start+0x5662>
 10017ee:	c505                	beqz	a0,1001816 <__spl_start+0x6be>
 10017f0:	865a                	mv	a2,s6
 10017f2:	85de                	mv	a1,s7
 10017f4:	8522                	mv	a0,s0
 10017f6:	6a7040ef          	jal	ra,100669c <__spl_start+0x5544>
 10017fa:	ed11                	bnez	a0,1001816 <__spl_start+0x6be>
 10017fc:	45e2                	lw	a1,24(sp)
 10017fe:	1401b683          	ld	a3,320(gp)
 1001802:	02059793          	slli	a5,a1,0x20
 1001806:	9381                	srli	a5,a5,0x20
 1001808:	00d78763          	beq	a5,a3,1001816 <__spl_start+0x6be>
 100180c:	02bc7063          	bgeu	s8,a1,100182c <__spl_start+0x6d4>
 1001810:	856e                	mv	a0,s11
 1001812:	6bf030ef          	jal	ra,10056d0 <__spl_start+0x4578>
 1001816:	0d81b503          	ld	a0,216(gp)
 100181a:	85a2                	mv	a1,s0
 100181c:	6e0020ef          	jal	ra,1003efc <__spl_start+0x2da4>
 1001820:	0005041b          	sext.w	s0,a0
 1001824:	fa055de3          	bgez	a0,10017de <__spl_start+0x686>
 1001828:	547d                	li	s0,-1
 100182a:	bf55                	j	10017de <__spl_start+0x686>
 100182c:	2581b683          	ld	a3,600(gp)
 1001830:	00bc95bb          	sllw	a1,s9,a1
 1001834:	8df5                	and	a1,a1,a3
 1001836:	d1e5                	beqz	a1,1001816 <__spl_start+0x6be>
 1001838:	00579693          	slli	a3,a5,0x5
 100183c:	07ad                	addi	a5,a5,11
 100183e:	968e                	add	a3,a3,gp
 1001840:	0796                	slli	a5,a5,0x5
 1001842:	1496bc23          	sd	s1,344(a3)
 1001846:	1726b023          	sd	s2,352(a3)
 100184a:	00f18733          	add	a4,gp,a5
 100184e:	01373423          	sd	s3,8(a4) # ffffffffffff8008 <__spl_src_start+0xfffffffffefeaa60>
 1001852:	0310000f          	fence	rw,w
 1001856:	4562                	lw	a0,24(sp)
 1001858:	02051713          	slli	a4,a0,0x20
 100185c:	01b75793          	srli	a5,a4,0x1b
 1001860:	16078793          	addi	a5,a5,352
 1001864:	978e                	add	a5,a5,gp
 1001866:	0157a823          	sw	s5,16(a5)
 100186a:	d0dff0ef          	jal	ra,1001576 <__spl_start+0x41e>
 100186e:	c919                	beqz	a0,1001884 <__spl_start+0x72c>
 1001870:	45e2                	lw	a1,24(sp)
 1001872:	e42a                	sd	a0,8(sp)
 1001874:	00008517          	auipc	a0,0x8
 1001878:	8bc50513          	addi	a0,a0,-1860 # 1009130 <__spl_start+0x7fd8>
 100187c:	655030ef          	jal	ra,10056d0 <__spl_start+0x4578>
 1001880:	67a2                	ld	a5,8(sp)
 1001882:	b721                	j	100178a <__spl_start+0x632>
 1001884:	f80a09e3          	beqz	s4,1001816 <__spl_start+0x6be>
 1001888:	ce56                	sw	s5,28(sp)
 100188a:	4562                	lw	a0,24(sp)
 100188c:	85ea                	mv	a1,s10
 100188e:	d15ff0ef          	jal	ra,10015a2 <__spl_start+0x44a>
 1001892:	87aa                	mv	a5,a0
 1001894:	ee051be3          	bnez	a0,100178a <__spl_start+0x632>
 1001898:	47f2                	lw	a5,28(sp)
 100189a:	fbe5                	bnez	a5,100188a <__spl_start+0x732>
 100189c:	bfad                	j	1001816 <__spl_start+0x6be>
 100189e:	1141                	addi	sp,sp,-16
 10018a0:	e406                	sd	ra,8(sp)
 10018a2:	450000ef          	jal	ra,1001cf2 <__spl_start+0xb9a>
 10018a6:	c901                	beqz	a0,10018b6 <__spl_start+0x75e>
 10018a8:	85aa                	mv	a1,a0
 10018aa:	00007517          	auipc	a0,0x7
 10018ae:	20650513          	addi	a0,a0,518 # 1008ab0 <__spl_start+0x7958>
 10018b2:	2fd030ef          	jal	ra,10053ae <__spl_start+0x4256>
 10018b6:	b23ff0ef          	jal	ra,10013d8 <__spl_start+0x280>
 10018ba:	652000ef          	jal	ra,1001f0c <__spl_start+0xdb4>
 10018be:	0000b317          	auipc	t1,0xb
 10018c2:	cb233303          	ld	t1,-846(t1) # 100c570 <__spl_start+0xb418>
 10018c6:	9302                	jalr	t1
 10018c8:	85aa                	mv	a1,a0
 10018ca:	c511                	beqz	a0,10018d6 <__spl_start+0x77e>
 10018cc:	00007517          	auipc	a0,0x7
 10018d0:	20450513          	addi	a0,a0,516 # 1008ad0 <__spl_start+0x7978>
 10018d4:	bff9                	j	10018b2 <__spl_start+0x75a>
 10018d6:	60a2                	ld	ra,8(sp)
 10018d8:	0141                	addi	sp,sp,16
 10018da:	8082                	ret
 10018dc:	1101                	addi	sp,sp,-32
 10018de:	e822                	sd	s0,16(sp)
 10018e0:	ec06                	sd	ra,24(sp)
 10018e2:	e426                	sd	s1,8(sp)
 10018e4:	e04a                	sd	s2,0(sp)
 10018e6:	7104                	ld	s1,32(a0)
 10018e8:	01853903          	ld	s2,24(a0)
 10018ec:	842a                	mv	s0,a0
 10018ee:	c3dff0ef          	jal	ra,100152a <__spl_start+0x3d2>
 10018f2:	6c08                	ld	a0,24(s0)
 10018f4:	4681                	li	a3,0
 10018f6:	4601                	li	a2,0
 10018f8:	85a6                	mv	a1,s1
 10018fa:	e4fff0ef          	jal	ra,1001748 <__spl_start+0x5f0>
 10018fe:	c119                	beqz	a0,1001904 <__spl_start+0x7ac>
 1001900:	017030ef          	jal	ra,1005116 <__spl_start+0x3fbe>
 1001904:	1401b503          	ld	a0,320(gp)
 1001908:	85a6                	mv	a1,s1
 100190a:	9902                	jalr	s2
	...
 1001918:	82aa                	mv	t0,a0
 100191a:	01063693          	sltiu	a3,a2,16
 100191e:	e2f5                	bnez	a3,1001a02 <__spl_start+0x8aa>
 1001920:	00728693          	addi	a3,t0,7
 1001924:	9ae1                	andi	a3,a3,-8
 1001926:	00568a63          	beq	a3,t0,100193a <__spl_start+0x7e2>
 100192a:	40568733          	sub	a4,a3,t0
 100192e:	00b28023          	sb	a1,0(t0)
 1001932:	0285                	addi	t0,t0,1
 1001934:	fed2ede3          	bltu	t0,a3,100192e <__spl_start+0x7d6>
 1001938:	8e19                	sub	a2,a2,a4
 100193a:	0ff5f593          	zext.b	a1,a1
 100193e:	00859693          	slli	a3,a1,0x8
 1001942:	8dd5                	or	a1,a1,a3
 1001944:	01059693          	slli	a3,a1,0x10
 1001948:	8dd5                	or	a1,a1,a3
 100194a:	02059693          	slli	a3,a1,0x20
 100194e:	8dd5                	or	a1,a1,a3
 1001950:	ff867713          	andi	a4,a2,-8
 1001954:	00e286b3          	add	a3,t0,a4
 1001958:	0f877713          	andi	a4,a4,248
 100195c:	cf11                	beqz	a4,1001978 <__spl_start+0x820>
 100195e:	40e00733          	neg	a4,a4
 1001962:	10070713          	addi	a4,a4,256
 1001966:	40e282b3          	sub	t0,t0,a4
 100196a:	0000b797          	auipc	a5,0xb
 100196e:	bce7b783          	ld	a5,-1074(a5) # 100c538 <__spl_start+0xb3e0>
 1001972:	8305                	srli	a4,a4,0x1
 1001974:	97ba                	add	a5,a5,a4
 1001976:	8782                	jr	a5
 1001978:	00b2b023          	sd	a1,0(t0)
 100197c:	00b2b423          	sd	a1,8(t0)
 1001980:	00b2b823          	sd	a1,16(t0)
 1001984:	00b2bc23          	sd	a1,24(t0)
 1001988:	02b2b023          	sd	a1,32(t0)
 100198c:	02b2b423          	sd	a1,40(t0)
 1001990:	02b2b823          	sd	a1,48(t0)
 1001994:	02b2bc23          	sd	a1,56(t0)
 1001998:	04b2b023          	sd	a1,64(t0)
 100199c:	04b2b423          	sd	a1,72(t0)
 10019a0:	04b2b823          	sd	a1,80(t0)
 10019a4:	04b2bc23          	sd	a1,88(t0)
 10019a8:	06b2b023          	sd	a1,96(t0)
 10019ac:	06b2b423          	sd	a1,104(t0)
 10019b0:	06b2b823          	sd	a1,112(t0)
 10019b4:	06b2bc23          	sd	a1,120(t0)
 10019b8:	08b2b023          	sd	a1,128(t0)
 10019bc:	08b2b423          	sd	a1,136(t0)
 10019c0:	08b2b823          	sd	a1,144(t0)
 10019c4:	08b2bc23          	sd	a1,152(t0)
 10019c8:	0ab2b023          	sd	a1,160(t0)
 10019cc:	0ab2b423          	sd	a1,168(t0)
 10019d0:	0ab2b823          	sd	a1,176(t0)
 10019d4:	0ab2bc23          	sd	a1,184(t0)
 10019d8:	0cb2b023          	sd	a1,192(t0)
 10019dc:	0cb2b423          	sd	a1,200(t0)
 10019e0:	0cb2b823          	sd	a1,208(t0)
 10019e4:	0cb2bc23          	sd	a1,216(t0)
 10019e8:	0eb2b023          	sd	a1,224(t0)
 10019ec:	0eb2b423          	sd	a1,232(t0)
 10019f0:	0eb2b823          	sd	a1,240(t0)
 10019f4:	0eb2bc23          	sd	a1,248(t0)
 10019f8:	10028293          	addi	t0,t0,256
 10019fc:	f6d2eee3          	bltu	t0,a3,1001978 <__spl_start+0x820>
 1001a00:	8a1d                	andi	a2,a2,7
 1001a02:	ca01                	beqz	a2,1001a12 <__spl_start+0x8ba>
 1001a04:	00c286b3          	add	a3,t0,a2
 1001a08:	00b28023          	sb	a1,0(t0)
 1001a0c:	0285                	addi	t0,t0,1
 1001a0e:	fed2ede3          	bltu	t0,a3,1001a08 <__spl_start+0x8b0>
 1001a12:	8082                	ret
	...
 1001a28:	40b502b3          	sub	t0,a0,a1
 1001a2c:	00c2e363          	bltu	t0,a2,1001a32 <__spl_start+0x8da>
 1001a30:	a061                	j	1001ab8 <__spl_start+0x960>
 1001a32:	82aa                	mv	t0,a0
 1001a34:	9532                	add	a0,a0,a2
 1001a36:	95b2                	add	a1,a1,a2
 1001a38:	46c1                	li	a3,16
 1001a3a:	02d66b63          	bltu	a2,a3,1001a70 <__spl_start+0x918>
 1001a3e:	ff857613          	andi	a2,a0,-8
 1001a42:	00c50a63          	beq	a0,a2,1001a56 <__spl_start+0x8fe>
 1001a46:	15fd                	addi	a1,a1,-1
 1001a48:	00058783          	lb	a5,0(a1)
 1001a4c:	157d                	addi	a0,a0,-1
 1001a4e:	00f50023          	sb	a5,0(a0)
 1001a52:	fec51ae3          	bne	a0,a2,1001a46 <__spl_start+0x8ee>
 1001a56:	0075f693          	andi	a3,a1,7
 1001a5a:	e69d                	bnez	a3,1001a88 <__spl_start+0x930>
 1001a5c:	029d                	addi	t0,t0,7
 1001a5e:	00a2f863          	bgeu	t0,a0,1001a6e <__spl_start+0x916>
 1001a62:	15e1                	addi	a1,a1,-8
 1001a64:	619c                	ld	a5,0(a1)
 1001a66:	1561                	addi	a0,a0,-8
 1001a68:	e11c                	sd	a5,0(a0)
 1001a6a:	fea2ece3          	bltu	t0,a0,1001a62 <__spl_start+0x90a>
 1001a6e:	12e5                	addi	t0,t0,-7
 1001a70:	00550a63          	beq	a0,t0,1001a84 <__spl_start+0x92c>
 1001a74:	15fd                	addi	a1,a1,-1
 1001a76:	00058783          	lb	a5,0(a1)
 1001a7a:	157d                	addi	a0,a0,-1
 1001a7c:	00f50023          	sb	a5,0(a0)
 1001a80:	fe551ae3          	bne	a0,t0,1001a74 <__spl_start+0x91c>
 1001a84:	8516                	mv	a0,t0
 1001a86:	8082                	ret
 1001a88:	00369e13          	slli	t3,a3,0x3
 1001a8c:	41c00eb3          	neg	t4,t3
 1001a90:	99e1                	andi	a1,a1,-8
 1001a92:	619c                	ld	a5,0(a1)
 1001a94:	029d                	addi	t0,t0,7
 1001a96:	01d79733          	sll	a4,a5,t4
 1001a9a:	15e1                	addi	a1,a1,-8
 1001a9c:	619c                	ld	a5,0(a1)
 1001a9e:	01c7d633          	srl	a2,a5,t3
 1001aa2:	8e59                	or	a2,a2,a4
 1001aa4:	1561                	addi	a0,a0,-8
 1001aa6:	e110                	sd	a2,0(a0)
 1001aa8:	fea2e7e3          	bltu	t0,a0,1001a96 <__spl_start+0x93e>
 1001aac:	12e5                	addi	t0,t0,-7
 1001aae:	95b6                	add	a1,a1,a3
 1001ab0:	b7c1                	j	1001a70 <__spl_start+0x918>
 1001ab2:	0000                	unimp
 1001ab4:	0000                	unimp
 1001ab6:	0000                	unimp
 1001ab8:	8faa                	mv	t6,a0
 1001aba:	00c502b3          	add	t0,a0,a2
 1001abe:	46c1                	li	a3,16
 1001ac0:	0ad66763          	bltu	a2,a3,1001b6e <__spl_start+0xa16>
 1001ac4:	00750613          	addi	a2,a0,7
 1001ac8:	9a61                	andi	a2,a2,-8
 1001aca:	00c50a63          	beq	a0,a2,1001ade <__spl_start+0x986>
 1001ace:	00058783          	lb	a5,0(a1)
 1001ad2:	0585                	addi	a1,a1,1
 1001ad4:	00f50023          	sb	a5,0(a0)
 1001ad8:	0505                	addi	a0,a0,1
 1001ada:	fec51ae3          	bne	a0,a2,1001ace <__spl_start+0x976>
 1001ade:	0075f693          	andi	a3,a1,7
 1001ae2:	e2d5                	bnez	a3,1001b86 <__spl_start+0xa2e>
 1001ae4:	f8128293          	addi	t0,t0,-127
 1001ae8:	06557863          	bgeu	a0,t0,1001b58 <__spl_start+0xa00>
 1001aec:	6190                	ld	a2,0(a1)
 1001aee:	6594                	ld	a3,8(a1)
 1001af0:	6998                	ld	a4,16(a1)
 1001af2:	6d9c                	ld	a5,24(a1)
 1001af4:	0205b803          	ld	a6,32(a1)
 1001af8:	0285b883          	ld	a7,40(a1)
 1001afc:	0305b303          	ld	t1,48(a1)
 1001b00:	0385b383          	ld	t2,56(a1)
 1001b04:	0405be03          	ld	t3,64(a1)
 1001b08:	0485be83          	ld	t4,72(a1)
 1001b0c:	0505bf03          	ld	t5,80(a1)
 1001b10:	e110                	sd	a2,0(a0)
 1001b12:	e514                	sd	a3,8(a0)
 1001b14:	e918                	sd	a4,16(a0)
 1001b16:	ed1c                	sd	a5,24(a0)
 1001b18:	03053023          	sd	a6,32(a0)
 1001b1c:	03153423          	sd	a7,40(a0)
 1001b20:	02653823          	sd	t1,48(a0)
 1001b24:	02753c23          	sd	t2,56(a0)
 1001b28:	05c53023          	sd	t3,64(a0)
 1001b2c:	05d53423          	sd	t4,72(a0)
 1001b30:	05e53823          	sd	t5,80(a0)
 1001b34:	6db0                	ld	a2,88(a1)
 1001b36:	71b4                	ld	a3,96(a1)
 1001b38:	75b8                	ld	a4,104(a1)
 1001b3a:	79bc                	ld	a5,112(a1)
 1001b3c:	0785b803          	ld	a6,120(a1)
 1001b40:	08058593          	addi	a1,a1,128
 1001b44:	ed30                	sd	a2,88(a0)
 1001b46:	f134                	sd	a3,96(a0)
 1001b48:	f538                	sd	a4,104(a0)
 1001b4a:	f93c                	sd	a5,112(a0)
 1001b4c:	07053c23          	sd	a6,120(a0)
 1001b50:	08050513          	addi	a0,a0,128
 1001b54:	f8556ce3          	bltu	a0,t0,1001aec <__spl_start+0x994>
 1001b58:	07828293          	addi	t0,t0,120
 1001b5c:	00557863          	bgeu	a0,t0,1001b6c <__spl_start+0xa14>
 1001b60:	619c                	ld	a5,0(a1)
 1001b62:	05a1                	addi	a1,a1,8
 1001b64:	e11c                	sd	a5,0(a0)
 1001b66:	0521                	addi	a0,a0,8
 1001b68:	fe556ce3          	bltu	a0,t0,1001b60 <__spl_start+0xa08>
 1001b6c:	029d                	addi	t0,t0,7
 1001b6e:	00550a63          	beq	a0,t0,1001b82 <__spl_start+0xa2a>
 1001b72:	00058783          	lb	a5,0(a1)
 1001b76:	0585                	addi	a1,a1,1
 1001b78:	00f50023          	sb	a5,0(a0)
 1001b7c:	0505                	addi	a0,a0,1
 1001b7e:	fe551ae3          	bne	a0,t0,1001b72 <__spl_start+0xa1a>
 1001b82:	857e                	mv	a0,t6
 1001b84:	8082                	ret
 1001b86:	00369e13          	slli	t3,a3,0x3
 1001b8a:	41c00eb3          	neg	t4,t3
 1001b8e:	99e1                	andi	a1,a1,-8
 1001b90:	619c                	ld	a5,0(a1)
 1001b92:	12e5                	addi	t0,t0,-7
 1001b94:	01c7d733          	srl	a4,a5,t3
 1001b98:	659c                	ld	a5,8(a1)
 1001b9a:	05a1                	addi	a1,a1,8
 1001b9c:	01d79633          	sll	a2,a5,t4
 1001ba0:	8e59                	or	a2,a2,a4
 1001ba2:	e110                	sd	a2,0(a0)
 1001ba4:	0521                	addi	a0,a0,8
 1001ba6:	fe5567e3          	bltu	a0,t0,1001b94 <__spl_start+0xa3c>
 1001baa:	029d                	addi	t0,t0,7
 1001bac:	95b6                	add	a1,a1,a3
 1001bae:	b7c1                	j	1001b6e <__spl_start+0xa16>
	...
 1001bbc:	4501                	li	a0,0
 1001bbe:	8082                	ret
 1001bc0:	4521                	li	a0,8
 1001bc2:	8082                	ret
 1001bc4:	4501                	li	a0,0
 1001bc6:	8082                	ret
 1001bc8:	8082                	ret
 1001bca:	1141                	addi	sp,sp,-16
 1001bcc:	e406                	sd	ra,8(sp)
 1001bce:	e022                	sd	s0,0(sp)
 1001bd0:	670d                	lui	a4,0x3
 1001bd2:	12e1b423          	sd	a4,296(gp)
 1001bd6:	0a400513          	li	a0,164
 1001bda:	0000b317          	auipc	t1,0xb
 1001bde:	9c633303          	ld	t1,-1594(t1) # 100c5a0 <__spl_start+0xb448>
 1001be2:	1201b823          	sd	zero,304(gp)
 1001be6:	9302                	jalr	t1
 1001be8:	4fe030ef          	jal	ra,10050e6 <__spl_start+0x3f8e>
 1001bec:	cd11                	beqz	a0,1001c08 <__spl_start+0xab0>
 1001bee:	842a                	mv	s0,a0
 1001bf0:	85aa                	mv	a1,a0
 1001bf2:	00008517          	auipc	a0,0x8
 1001bf6:	68e50513          	addi	a0,a0,1678 # 100a280 <__spl_start+0x9128>
 1001bfa:	2d7030ef          	jal	ra,10056d0 <__spl_start+0x4578>
 1001bfe:	60a2                	ld	ra,8(sp)
 1001c00:	8522                	mv	a0,s0
 1001c02:	6402                	ld	s0,0(sp)
 1001c04:	0141                	addi	sp,sp,16
 1001c06:	8082                	ret
 1001c08:	4505                	li	a0,1
 1001c0a:	47c040ef          	jal	ra,1006086 <__spl_start+0x4f2e>
 1001c0e:	842a                	mv	s0,a0
 1001c10:	d57d                	beqz	a0,1001bfe <__spl_start+0xaa6>
 1001c12:	85aa                	mv	a1,a0
 1001c14:	00008517          	auipc	a0,0x8
 1001c18:	69450513          	addi	a0,a0,1684 # 100a2a8 <__spl_start+0x9150>
 1001c1c:	bff9                	j	1001bfa <__spl_start+0xaa2>
 1001c1e:	8082                	ret
 1001c20:	8082                	ret
 1001c22:	40100793          	li	a5,1025
 1001c26:	07d6                	slli	a5,a5,0x15
 1001c28:	953e                	add	a0,a0,a5
 1001c2a:	8082                	ret
 1001c2c:	0000b797          	auipc	a5,0xb
 1001c30:	9dc7b783          	ld	a5,-1572(a5) # 100c608 <__spl_start+0xb4b0>
 1001c34:	639c                	ld	a5,0(a5)
 1001c36:	5775                	li	a4,-3
 1001c38:	fff78693          	addi	a3,a5,-1
 1001c3c:	00d77563          	bgeu	a4,a3,1001c46 <__spl_start+0xaee>
 1001c40:	40100793          	li	a5,1025
 1001c44:	07d6                	slli	a5,a5,0x15
 1001c46:	ed1c                	sd	a5,24(a0)
 1001c48:	e91c                	sd	a5,16(a0)
 1001c4a:	47c5                	li	a5,17
 1001c4c:	00032737          	lui	a4,0x32
 1001c50:	00f50423          	sb	a5,8(a0)
 1001c54:	00009797          	auipc	a5,0x9
 1001c58:	afc78793          	addi	a5,a5,-1284 # 100a750 <__spl_start+0x95f8>
 1001c5c:	d558                	sw	a4,44(a0)
 1001c5e:	e11c                	sd	a5,0(a0)
 1001c60:	8082                	ret
 1001c62:	1141                	addi	sp,sp,-16
 1001c64:	00009517          	auipc	a0,0x9
 1001c68:	a9c50513          	addi	a0,a0,-1380 # 100a700 <__spl_start+0x95a8>
 1001c6c:	e406                	sd	ra,8(sp)
 1001c6e:	263030ef          	jal	ra,10056d0 <__spl_start+0x4578>
 1001c72:	60a2                	ld	ra,8(sp)
 1001c74:	5529                	li	a0,-22
 1001c76:	0141                	addi	sp,sp,16
 1001c78:	8082                	ret
 1001c7a:	4198                	lw	a4,0(a1)
 1001c7c:	00ff0637          	lui	a2,0xff0
 1001c80:	0187569b          	srliw	a3,a4,0x18
 1001c84:	0187179b          	slliw	a5,a4,0x18
 1001c88:	8fd5                	or	a5,a5,a3
 1001c8a:	0087169b          	slliw	a3,a4,0x8
 1001c8e:	8ef1                	and	a3,a3,a2
 1001c90:	6641                	lui	a2,0x10
 1001c92:	8fd5                	or	a5,a5,a3
 1001c94:	f0060613          	addi	a2,a2,-256 # ff00 <_start-0xff0100>
 1001c98:	0087569b          	srliw	a3,a4,0x8
 1001c9c:	8ef1                	and	a3,a3,a2
 1001c9e:	8fd5                	or	a5,a5,a3
 1001ca0:	270526b7          	lui	a3,0x27052
 1001ca4:	2781                	sext.w	a5,a5
 1001ca6:	95668693          	addi	a3,a3,-1706 # 27051956 <__spl_src_start+0x260443ae>
 1001caa:	00d79763          	bne	a5,a3,1001cb8 <__spl_start+0xb60>
 1001cae:	0000b317          	auipc	t1,0xb
 1001cb2:	90a33303          	ld	t1,-1782(t1) # 100c5b8 <__spl_start+0xb460>
 1001cb6:	8302                	jr	t1
 1001cb8:	1141                	addi	sp,sp,-16
 1001cba:	e022                	sd	s0,0(sp)
 1001cbc:	85ba                	mv	a1,a4
 1001cbe:	842a                	mv	s0,a0
 1001cc0:	00009517          	auipc	a0,0x9
 1001cc4:	a1050513          	addi	a0,a0,-1520 # 100a6d0 <__spl_start+0x9578>
 1001cc8:	e406                	sd	ra,8(sp)
 1001cca:	207030ef          	jal	ra,10056d0 <__spl_start+0x4578>
 1001cce:	8522                	mv	a0,s0
 1001cd0:	f5dff0ef          	jal	ra,1001c2c <__spl_start+0xad4>
 1001cd4:	60a2                	ld	ra,8(sp)
 1001cd6:	6402                	ld	s0,0(sp)
 1001cd8:	4501                	li	a0,0
 1001cda:	0141                	addi	sp,sp,16
 1001cdc:	8082                	ret
 1001cde:	0001b703          	ld	a4,0(gp)
 1001ce2:	e719                	bnez	a4,1001cf0 <__spl_start+0xb98>
 1001ce4:	0000a717          	auipc	a4,0xa
 1001ce8:	b6470713          	addi	a4,a4,-1180 # 100b848 <__spl_start+0xa6f0>
 1001cec:	00e1b023          	sd	a4,0(gp)
 1001cf0:	8082                	ret
 1001cf2:	1141                	addi	sp,sp,-16
 1001cf4:	00007597          	auipc	a1,0x7
 1001cf8:	b4458593          	addi	a1,a1,-1212 # 1008838 <__spl_start+0x76e0>
 1001cfc:	00007517          	auipc	a0,0x7
 1001d00:	00450513          	addi	a0,a0,4 # 1008d00 <__spl_start+0x7ba8>
 1001d04:	e406                	sd	ra,8(sp)
 1001d06:	1cb030ef          	jal	ra,10056d0 <__spl_start+0x4578>
 1001d0a:	ec1ff0ef          	jal	ra,1001bca <__spl_start+0xa72>
 1001d0e:	e519                	bnez	a0,1001d1c <__spl_start+0xbc4>
 1001d10:	0081b783          	ld	a5,8(gp)
 1001d14:	6691                	lui	a3,0x4
 1001d16:	8fd5                	or	a5,a5,a3
 1001d18:	00f1b423          	sd	a5,8(gp)
 1001d1c:	60a2                	ld	ra,8(sp)
 1001d1e:	0141                	addi	sp,sp,16
 1001d20:	8082                	ret
 1001d22:	1141                	addi	sp,sp,-16
 1001d24:	00007597          	auipc	a1,0x7
 1001d28:	aac58593          	addi	a1,a1,-1364 # 10087d0 <__spl_start+0x7678>
 1001d2c:	00007517          	auipc	a0,0x7
 1001d30:	fd450513          	addi	a0,a0,-44 # 1008d00 <__spl_start+0x7ba8>
 1001d34:	e406                	sd	ra,8(sp)
 1001d36:	19b030ef          	jal	ra,10056d0 <__spl_start+0x4578>
 1001d3a:	0081b703          	ld	a4,8(gp)
 1001d3e:	6791                	lui	a5,0x4
 1001d40:	8ff9                	and	a5,a5,a4
 1001d42:	cb99                	beqz	a5,1001d58 <__spl_start+0xc00>
 1001d44:	0081b783          	ld	a5,8(gp)
 1001d48:	4501                	li	a0,0
 1001d4a:	4007e793          	ori	a5,a5,1024
 1001d4e:	00f1b423          	sd	a5,8(gp)
 1001d52:	60a2                	ld	ra,8(sp)
 1001d54:	0141                	addi	sp,sp,16
 1001d56:	8082                	ret
 1001d58:	e73ff0ef          	jal	ra,1001bca <__spl_start+0xa72>
 1001d5c:	d565                	beqz	a0,1001d44 <__spl_start+0xbec>
 1001d5e:	bfd5                	j	1001d52 <__spl_start+0xbfa>
 1001d60:	1141                	addi	sp,sp,-16
 1001d62:	e022                	sd	s0,0(sp)
 1001d64:	e406                	sd	ra,8(sp)
 1001d66:	842a                	mv	s0,a0
 1001d68:	e59ff0ef          	jal	ra,1001bc0 <__spl_start+0xa68>
 1001d6c:	60a2                	ld	ra,8(sp)
 1001d6e:	c008                	sw	a0,0(s0)
 1001d70:	6402                	ld	s0,0(sp)
 1001d72:	0141                	addi	sp,sp,16
 1001d74:	8082                	ret
 1001d76:	7131                	addi	sp,sp,-192
 1001d78:	f922                	sd	s0,176(sp)
 1001d7a:	0820                	addi	s0,sp,24
 1001d7c:	4651                	li	a2,20
 1001d7e:	00007597          	auipc	a1,0x7
 1001d82:	a3258593          	addi	a1,a1,-1486 # 10087b0 <__spl_start+0x7658>
 1001d86:	8522                	mv	a0,s0
 1001d88:	fd06                	sd	ra,184(sp)
 1001d8a:	f526                	sd	s1,168(sp)
 1001d8c:	f14a                	sd	s2,160(sp)
 1001d8e:	ed4e                	sd	s3,152(sp)
 1001d90:	e952                	sd	s4,144(sp)
 1001d92:	e556                	sd	s5,136(sp)
 1001d94:	e15a                	sd	s6,128(sp)
 1001d96:	fcde                	sd	s7,120(sp)
 1001d98:	f8e2                	sd	s8,112(sp)
 1001d9a:	d1fff0ef          	jal	ra,1001ab8 <__spl_start+0x960>
 1001d9e:	00007517          	auipc	a0,0x7
 1001da2:	d5250513          	addi	a0,a0,-686 # 1008af0 <__spl_start+0x7998>
 1001da6:	12b030ef          	jal	ra,10056d0 <__spl_start+0x4578>
 1001daa:	f35ff0ef          	jal	ra,1001cde <__spl_start+0xb86>
 1001dae:	02100513          	li	a0,33
 1001db2:	001005b7          	lui	a1,0x100
 1001db6:	056a                	slli	a0,a0,0x1a
 1001db8:	25c010ef          	jal	ra,1003014 <__spl_start+0x1ebc>
 1001dbc:	0081b783          	ld	a5,8(gp)
 1001dc0:	2007e693          	ori	a3,a5,512
 1001dc4:	00d1b423          	sd	a3,8(gp)
 1001dc8:	4007f793          	andi	a5,a5,1024
 1001dcc:	e791                	bnez	a5,1001dd8 <__spl_start+0xc80>
 1001dce:	f55ff0ef          	jal	ra,1001d22 <__spl_start+0xbca>
 1001dd2:	c119                	beqz	a0,1001dd8 <__spl_start+0xc80>
 1001dd4:	342030ef          	jal	ra,1005116 <__spl_start+0x3fbe>
 1001dd8:	4e6030ef          	jal	ra,10052be <__spl_start+0x4166>
 1001ddc:	03010993          	addi	s3,sp,48
 1001de0:	04000613          	li	a2,64
 1001de4:	4581                	li	a1,0
 1001de6:	854e                	mv	a0,s3
 1001de8:	b31ff0ef          	jal	ra,1001918 <__spl_start+0x7c0>
 1001dec:	deadc4b7          	lui	s1,0xdeadc
 1001df0:	eef48913          	addi	s2,s1,-273 # ffffffffdeadbeef <__spl_src_start+0xffffffffddace947>
 1001df4:	8522                	mv	a0,s0
 1001df6:	0000a317          	auipc	t1,0xa
 1001dfa:	76233303          	ld	t1,1890(t1) # 100c558 <__spl_start+0xb400>
 1001dfe:	ccca                	sw	s2,88(sp)
 1001e00:	9302                	jalr	t1
 1001e02:	0000b717          	auipc	a4,0xb
 1001e06:	d1e70713          	addi	a4,a4,-738 # 100cb20 <__spl_start+0xb9c8>
 1001e0a:	0000b797          	auipc	a5,0xb
 1001e0e:	d4678793          	addi	a5,a5,-698 # 100cb50 <__spl_start+0xb9f8>
 1001e12:	8f99                	sub	a5,a5,a4
 1001e14:	00007697          	auipc	a3,0x7
 1001e18:	dcc6b683          	ld	a3,-564(a3) # 1008be0 <__spl_start+0x7a88>
 1001e1c:	878d                	srai	a5,a5,0x3
 1001e1e:	02d787bb          	mulw	a5,a5,a3
 1001e22:	46e1                	li	a3,24
 1001e24:	02c10b13          	addi	s6,sp,44
 1001e28:	00007a97          	auipc	s5,0x7
 1001e2c:	d68a8a93          	addi	s5,s5,-664 # 1008b90 <__spl_start+0x7a38>
 1001e30:	00007b97          	auipc	s7,0x7
 1001e34:	d48b8b93          	addi	s7,s7,-696 # 1008b78 <__spl_start+0x7a20>
 1001e38:	00810c13          	addi	s8,sp,8
 1001e3c:	02d787b3          	mul	a5,a5,a3
 1001e40:	00f70a33          	add	s4,a4,a5
 1001e44:	401c                	lw	a5,0(s0)
 1001e46:	03278363          	beq	a5,s2,1001e6c <__spl_start+0xd14>
 1001e4a:	0000b497          	auipc	s1,0xb
 1001e4e:	cd648493          	addi	s1,s1,-810 # 100cb20 <__spl_start+0xb9c8>
 1001e52:	a029                	j	1001e5c <__spl_start+0xd04>
 1001e54:	4498                	lw	a4,8(s1)
 1001e56:	06f70863          	beq	a4,a5,1001ec6 <__spl_start+0xd6e>
 1001e5a:	04e1                	addi	s1,s1,24
 1001e5c:	ff449ce3          	bne	s1,s4,1001e54 <__spl_start+0xcfc>
 1001e60:	8556                	mv	a0,s5
 1001e62:	13a010ef          	jal	ra,1002f9c <__spl_start+0x1e44>
 1001e66:	0411                	addi	s0,s0,4
 1001e68:	fd641ee3          	bne	s0,s6,1001e44 <__spl_start+0xcec>
 1001e6c:	00007517          	auipc	a0,0x7
 1001e70:	d4450513          	addi	a0,a0,-700 # 1008bb0 <__spl_start+0x7a58>
 1001e74:	128010ef          	jal	ra,1002f9c <__spl_start+0x1e44>
 1001e78:	bfb1                	j	1001dd4 <__spl_start+0xc7c>
 1001e7a:	00009597          	auipc	a1,0x9
 1001e7e:	8d658593          	addi	a1,a1,-1834 # 100a750 <__spl_start+0x95f8>
 1001e82:	00007517          	auipc	a0,0x7
 1001e86:	c8650513          	addi	a0,a0,-890 # 1008b08 <__spl_start+0x79b0>
 1001e8a:	047030ef          	jal	ra,10056d0 <__spl_start+0x4578>
 1001e8e:	0a500513          	li	a0,165
 1001e92:	0000a317          	auipc	t1,0xa
 1001e96:	70e33303          	ld	t1,1806(t1) # 100c5a0 <__spl_start+0xb448>
 1001e9a:	9302                	jalr	t1
 1001e9c:	0000a317          	auipc	t1,0xa
 1001ea0:	7ac33303          	ld	t1,1964(t1) # 100c648 <__spl_start+0xb4f0>
 1001ea4:	9302                	jalr	t1
 1001ea6:	854e                	mv	a0,s3
 1001ea8:	0000a317          	auipc	t1,0xa
 1001eac:	6d833303          	ld	t1,1752(t1) # 100c580 <__spl_start+0xb428>
 1001eb0:	9302                	jalr	t1
 1001eb2:	00007517          	auipc	a0,0x7
 1001eb6:	c6e50513          	addi	a0,a0,-914 # 1008b20 <__spl_start+0x79c8>
 1001eba:	017030ef          	jal	ra,10056d0 <__spl_start+0x4578>
 1001ebe:	854e                	mv	a0,s3
 1001ec0:	6bc000ef          	jal	ra,100257c <__spl_start+0x1424>
 1001ec4:	b7e9                	j	1001e8e <__spl_start+0xd36>
 1001ec6:	608c                	ld	a1,0(s1)
 1001ec8:	855e                	mv	a0,s7
 1001eca:	007030ef          	jal	ra,10056d0 <__spl_start+0x4578>
 1001ece:	449c                	lw	a5,8(s1)
 1001ed0:	e802                	sd	zero,16(sp)
 1001ed2:	85e2                	mv	a1,s8
 1001ed4:	c43e                	sw	a5,8(sp)
 1001ed6:	689c                	ld	a5,16(s1)
 1001ed8:	854e                	mv	a0,s3
 1001eda:	9782                	jalr	a5
 1001edc:	f549                	bnez	a0,1001e66 <__spl_start+0xd0e>
 1001ede:	401c                	lw	a5,0(s0)
 1001ee0:	854e                	mv	a0,s3
 1001ee2:	0000a317          	auipc	t1,0xa
 1001ee6:	73e33303          	ld	t1,1854(t1) # 100c620 <__spl_start+0xb4c8>
 1001eea:	ccbe                	sw	a5,88(sp)
 1001eec:	9302                	jalr	t1
 1001eee:	03814783          	lbu	a5,56(sp)
 1001ef2:	4745                	li	a4,17
 1001ef4:	f8e783e3          	beq	a5,a4,1001e7a <__spl_start+0xd22>
 1001ef8:	476d                	li	a4,27
 1001efa:	fae78ce3          	beq	a5,a4,1001eb2 <__spl_start+0xd5a>
 1001efe:	00007517          	auipc	a0,0x7
 1001f02:	c4a50513          	addi	a0,a0,-950 # 1008b48 <__spl_start+0x79f0>
 1001f06:	7ca030ef          	jal	ra,10056d0 <__spl_start+0x4578>
 1001f0a:	b751                	j	1001e8e <__spl_start+0xd36>
 1001f0c:	1141                	addi	sp,sp,-16
 1001f0e:	67f1                	lui	a5,0x1c
 1001f10:	e406                	sd	ra,8(sp)
 1001f12:	20078793          	addi	a5,a5,512 # 1c200 <_start-0xfe3e00>
 1001f16:	00f1a823          	sw	a5,16(gp)
 1001f1a:	540050ef          	jal	ra,100745a <__spl_start+0x6302>
 1001f1e:	4785                	li	a5,1
 1001f20:	02f1bc23          	sd	a5,56(gp)
 1001f24:	60a2                	ld	ra,8(sp)
 1001f26:	00007517          	auipc	a0,0x7
 1001f2a:	0e250513          	addi	a0,a0,226 # 1009008 <__spl_start+0x7eb0>
 1001f2e:	0141                	addi	sp,sp,16
 1001f30:	06c0106f          	j	1002f9c <__spl_start+0x1e44>
 1001f34:	4501                	li	a0,0
 1001f36:	8082                	ret
 1001f38:	7139                	addi	sp,sp,-64
 1001f3a:	f426                	sd	s1,40(sp)
 1001f3c:	f04a                	sd	s2,32(sp)
 1001f3e:	ec4e                	sd	s3,24(sp)
 1001f40:	fc06                	sd	ra,56(sp)
 1001f42:	f822                	sd	s0,48(sp)
 1001f44:	e852                	sd	s4,16(sp)
 1001f46:	892e                	mv	s2,a1
 1001f48:	84b2                	mv	s1,a2
 1001f4a:	862e                	mv	a2,a1
 1001f4c:	494c                	lw	a1,20(a0)
 1001f4e:	6108                	ld	a0,0(a0)
 1001f50:	89b6                	mv	s3,a3
 1001f52:	0074                	addi	a3,sp,12
 1001f54:	4f0020ef          	jal	ra,1004444 <__spl_start+0x32ec>
 1001f58:	e131                	bnez	a0,1001f9c <__spl_start+0xe44>
 1001f5a:	4632                	lw	a2,12(sp)
 1001f5c:	85ca                	mv	a1,s2
 1001f5e:	00008517          	auipc	a0,0x8
 1001f62:	39a50513          	addi	a0,a0,922 # 100a2f8 <__spl_start+0x91a0>
 1001f66:	76a030ef          	jal	ra,10056d0 <__spl_start+0x4578>
 1001f6a:	5529                	li	a0,-22
 1001f6c:	70e2                	ld	ra,56(sp)
 1001f6e:	7442                	ld	s0,48(sp)
 1001f70:	74a2                	ld	s1,40(sp)
 1001f72:	7902                	ld	s2,32(sp)
 1001f74:	69e2                	ld	s3,24(sp)
 1001f76:	6a42                	ld	s4,16(sp)
 1001f78:	6121                	addi	sp,sp,64
 1001f7a:	8082                	ret
 1001f7c:	4581                	li	a1,0
 1001f7e:	256030ef          	jal	ra,10051d4 <__spl_start+0x407c>
 1001f82:	47b2                	lw	a5,12(sp)
 1001f84:	0505                	addi	a0,a0,1
 1001f86:	40850733          	sub	a4,a0,s0
 1001f8a:	00f75c63          	bge	a4,a5,1001fa2 <__spl_start+0xe4a>
 1001f8e:	2a05                	addiw	s4,s4,1
 1001f90:	fe9a46e3          	blt	s4,s1,1001f7c <__spl_start+0xe24>
 1001f94:	00a9b023          	sd	a0,0(s3)
 1001f98:	4501                	li	a0,0
 1001f9a:	bfc9                	j	1001f6c <__spl_start+0xe14>
 1001f9c:	842a                	mv	s0,a0
 1001f9e:	4a01                	li	s4,0
 1001fa0:	bfc5                	j	1001f90 <__spl_start+0xe38>
 1001fa2:	85a6                	mv	a1,s1
 1001fa4:	00008517          	auipc	a0,0x8
 1001fa8:	37450513          	addi	a0,a0,884 # 100a318 <__spl_start+0x91c0>
 1001fac:	724030ef          	jal	ra,10056d0 <__spl_start+0x4578>
 1001fb0:	5565                	li	a0,-7
 1001fb2:	bf6d                	j	1001f6c <__spl_start+0xe14>
 1001fb4:	7179                	addi	sp,sp,-48
 1001fb6:	0034                	addi	a3,sp,8
 1001fb8:	f022                	sd	s0,32(sp)
 1001fba:	e84a                	sd	s2,16(sp)
 1001fbc:	f406                	sd	ra,40(sp)
 1001fbe:	ec26                	sd	s1,24(sp)
 1001fc0:	842a                	mv	s0,a0
 1001fc2:	892e                	mv	s2,a1
 1001fc4:	f75ff0ef          	jal	ra,1001f38 <__spl_start+0xde0>
 1001fc8:	e915                	bnez	a0,1001ffc <__spl_start+0xea4>
 1001fca:	64a2                	ld	s1,8(sp)
 1001fcc:	85ca                	mv	a1,s2
 1001fce:	00008517          	auipc	a0,0x8
 1001fd2:	36250513          	addi	a0,a0,866 # 100a330 <__spl_start+0x91d8>
 1001fd6:	8626                	mv	a2,s1
 1001fd8:	6f8030ef          	jal	ra,10056d0 <__spl_start+0x4578>
 1001fdc:	480c                	lw	a1,16(s0)
 1001fde:	6008                	ld	a0,0(s0)
 1001fe0:	8626                	mv	a2,s1
 1001fe2:	2f8020ef          	jal	ra,10042da <__spl_start+0x3182>
 1001fe6:	00055b63          	bgez	a0,1001ffc <__spl_start+0xea4>
 1001fea:	862a                	mv	a2,a0
 1001fec:	85a6                	mv	a1,s1
 1001fee:	00008517          	auipc	a0,0x8
 1001ff2:	35250513          	addi	a0,a0,850 # 100a340 <__spl_start+0x91e8>
 1001ff6:	6da030ef          	jal	ra,10056d0 <__spl_start+0x4578>
 1001ffa:	5529                	li	a0,-22
 1001ffc:	70a2                	ld	ra,40(sp)
 1001ffe:	7402                	ld	s0,32(sp)
 1002000:	64e2                	ld	s1,24(sp)
 1002002:	6942                	ld	s2,16(sp)
 1002004:	6145                	addi	sp,sp,48
 1002006:	8082                	ret
 1002008:	7175                	addi	sp,sp,-144
 100200a:	e122                	sd	s0,128(sp)
 100200c:	fca6                	sd	s1,120(sp)
 100200e:	f8ca                	sd	s2,112(sp)
 1002010:	f4ce                	sd	s3,104(sp)
 1002012:	ecd6                	sd	s5,88(sp)
 1002014:	e506                	sd	ra,136(sp)
 1002016:	f0d2                	sd	s4,96(sp)
 1002018:	e8da                	sd	s6,80(sp)
 100201a:	e4de                	sd	s7,72(sp)
 100201c:	00063a03          	ld	s4,0(a2)
 1002020:	892a                	mv	s2,a0
 1002022:	8aae                	mv	s5,a1
 1002024:	8432                	mv	s0,a2
 1002026:	85b6                	mv	a1,a3
 1002028:	1030                	addi	a2,sp,40
 100202a:	8552                	mv	a0,s4
 100202c:	84b6                	mv	s1,a3
 100202e:	89ba                	mv	s3,a4
 1002030:	2f1010ef          	jal	ra,1003b20 <__spl_start+0x29c8>
 1002034:	cd1d                	beqz	a0,1002072 <__spl_start+0xf1a>
 1002036:	0109b783          	ld	a5,16(s3)
 100203a:	eb9d                	bnez	a5,1002070 <__spl_start+0xf18>
 100203c:	4601                	li	a2,0
 100203e:	85a6                	mv	a1,s1
 1002040:	8552                	mv	a0,s4
 1002042:	1a8020ef          	jal	ra,10041ea <__spl_start+0x3092>
 1002046:	85aa                	mv	a1,a0
 1002048:	00008517          	auipc	a0,0x8
 100204c:	43850513          	addi	a0,a0,1080 # 100a480 <__spl_start+0x9328>
 1002050:	680030ef          	jal	ra,10056d0 <__spl_start+0x4578>
 1002054:	f9700793          	li	a5,-105
 1002058:	60aa                	ld	ra,136(sp)
 100205a:	640a                	ld	s0,128(sp)
 100205c:	74e6                	ld	s1,120(sp)
 100205e:	7946                	ld	s2,112(sp)
 1002060:	79a6                	ld	s3,104(sp)
 1002062:	7a06                	ld	s4,96(sp)
 1002064:	6ae6                	ld	s5,88(sp)
 1002066:	6b46                	ld	s6,80(sp)
 1002068:	6ba6                	ld	s7,72(sp)
 100206a:	853e                	mv	a0,a5
 100206c:	6149                	addi	sp,sp,144
 100206e:	8082                	ret
 1002070:	f43e                	sd	a5,40(sp)
 1002072:	0830                	addi	a2,sp,24
 1002074:	85a6                	mv	a1,s1
 1002076:	8552                	mv	a0,s4
 1002078:	e432                	sd	a2,8(sp)
 100207a:	341010ef          	jal	ra,1003bba <__spl_start+0x2a62>
 100207e:	c919                	beqz	a0,1002094 <__spl_start+0xf3c>
 1002080:	6622                	ld	a2,8(sp)
 1002082:	85a6                	mv	a1,s1
 1002084:	8552                	mv	a0,s4
 1002086:	2e7010ef          	jal	ra,1003b6c <__spl_start+0x2a14>
 100208a:	e555                	bnez	a0,1002136 <__spl_start+0xfde>
 100208c:	47e2                	lw	a5,24(sp)
 100208e:	6418                	ld	a4,8(s0)
 1002090:	9fb9                	addw	a5,a5,a4
 1002092:	cc3e                	sw	a5,24(sp)
 1002094:	0870                	addi	a2,sp,28
 1002096:	85a6                	mv	a1,s1
 1002098:	8552                	mv	a0,s4
 100209a:	36f010ef          	jal	ra,1003c08 <__spl_start+0x2ab0>
 100209e:	57f9                	li	a5,-2
 10020a0:	fd45                	bnez	a0,1002058 <__spl_start+0xf00>
 10020a2:	47f2                	lw	a5,28(sp)
 10020a4:	7422                	ld	s0,40(sp)
 10020a6:	45e2                	lw	a1,24(sp)
 10020a8:	01893703          	ld	a4,24(s2) # ffffffffffff8018 <__spl_src_start+0xfffffffffefeaa70>
 10020ac:	047d                	addi	s0,s0,31
 10020ae:	f03e                	sd	a5,32(sp)
 10020b0:	9801                	andi	s0,s0,-32
 10020b2:	01f5fb93          	andi	s7,a1,31
 10020b6:	e709                	bnez	a4,10020c0 <__spl_start+0xf68>
 10020b8:	01092b83          	lw	s7,16(s2)
 10020bc:	0375ebbb          	remw	s7,a1,s7
 10020c0:	01778b3b          	addw	s6,a5,s7
 10020c4:	87da                	mv	a5,s6
 10020c6:	eb01                	bnez	a4,10020d6 <__spl_start+0xf7e>
 10020c8:	01092b03          	lw	s6,16(s2)
 10020cc:	016787bb          	addw	a5,a5,s6
 10020d0:	37fd                	addiw	a5,a5,-1
 10020d2:	0367cb3b          	divw	s6,a5,s6
 10020d6:	02093783          	ld	a5,32(s2)
 10020da:	cf2d                	beqz	a4,1002154 <__spl_start+0xffc>
 10020dc:	9981                	andi	a1,a1,-32
 10020de:	86a2                	mv	a3,s0
 10020e0:	865a                	mv	a2,s6
 10020e2:	95d6                	add	a1,a1,s5
 10020e4:	854a                	mv	a0,s2
 10020e6:	9782                	jalr	a5
 10020e8:	57ed                	li	a5,-5
 10020ea:	f6ab17e3          	bne	s6,a0,1002058 <__spl_start+0xf00>
 10020ee:	7682                	ld	a3,32(sp)
 10020f0:	4662                	lw	a2,24(sp)
 10020f2:	85a2                	mv	a1,s0
 10020f4:	00008517          	auipc	a0,0x8
 10020f8:	3bc50513          	addi	a0,a0,956 # 100a4b0 <__spl_start+0x9358>
 10020fc:	5d4030ef          	jal	ra,10056d0 <__spl_start+0x4578>
 1002100:	017405b3          	add	a1,s0,s7
 1002104:	7602                	ld	a2,32(sp)
 1002106:	7522                	ld	a0,40(sp)
 1002108:	9b1ff0ef          	jal	ra,1001ab8 <__spl_start+0x960>
 100210c:	4781                	li	a5,0
 100210e:	f40985e3          	beqz	s3,1002058 <__spl_start+0xf00>
 1002112:	77a2                	ld	a5,40(sp)
 1002114:	1830                	addi	a2,sp,56
 1002116:	85a6                	mv	a1,s1
 1002118:	00f9b823          	sd	a5,16(s3)
 100211c:	7782                	ld	a5,32(sp)
 100211e:	8552                	mv	a0,s4
 1002120:	02f9a623          	sw	a5,44(s3)
 1002124:	209010ef          	jal	ra,1003b2c <__spl_start+0x29d4>
 1002128:	57fd                	li	a5,-1
 100212a:	e111                	bnez	a0,100212e <__spl_start+0xfd6>
 100212c:	77e2                	ld	a5,56(sp)
 100212e:	00f9bc23          	sd	a5,24(s3)
 1002132:	4781                	li	a5,0
 1002134:	b715                	j	1002058 <__spl_start+0xf00>
 1002136:	1014                	addi	a3,sp,32
 1002138:	1810                	addi	a2,sp,48
 100213a:	85a6                	mv	a1,s1
 100213c:	8552                	mv	a0,s4
 100213e:	1fb010ef          	jal	ra,1003b38 <__spl_start+0x29e0>
 1002142:	cd11                	beqz	a0,100215e <__spl_start+0x1006>
 1002144:	00008517          	auipc	a0,0x8
 1002148:	39c50513          	addi	a0,a0,924 # 100a4e0 <__spl_start+0x9388>
 100214c:	651000ef          	jal	ra,1002f9c <__spl_start+0x1e44>
 1002150:	57f9                	li	a5,-2
 1002152:	b719                	j	1002058 <__spl_start+0xf00>
 1002154:	01092703          	lw	a4,16(s2)
 1002158:	02e5c5bb          	divw	a1,a1,a4
 100215c:	b749                	j	10020de <__spl_start+0xf86>
 100215e:	75a2                	ld	a1,40(sp)
 1002160:	7602                	ld	a2,32(sp)
 1002162:	00008517          	auipc	a0,0x8
 1002166:	39e50513          	addi	a0,a0,926 # 100a500 <__spl_start+0x93a8>
 100216a:	566030ef          	jal	ra,10056d0 <__spl_start+0x4578>
 100216e:	75c2                	ld	a1,48(sp)
 1002170:	bf51                	j	1002104 <__spl_start+0xfac>
 1002172:	7119                	addi	sp,sp,-128
 1002174:	f8a2                	sd	s0,112(sp)
 1002176:	f4a6                	sd	s1,104(sp)
 1002178:	f0ca                	sd	s2,96(sp)
 100217a:	e8d2                	sd	s4,80(sp)
 100217c:	e4d6                	sd	s5,72(sp)
 100217e:	fc86                	sd	ra,120(sp)
 1002180:	ecce                	sd	s3,88(sp)
 1002182:	02c56983          	lwu	s3,44(a0)
 1002186:	691c                	ld	a5,16(a0)
 1002188:	84aa                	mv	s1,a0
 100218a:	8a2e                	mv	s4,a1
 100218c:	99be                	add	s3,s3,a5
 100218e:	8ab2                	mv	s5,a2
 1002190:	00008597          	auipc	a1,0x8
 1002194:	14058593          	addi	a1,a1,320 # 100a2d0 <__spl_start+0x9178>
 1002198:	4601                	li	a2,0
 100219a:	8536                	mv	a0,a3
 100219c:	8936                	mv	s2,a3
 100219e:	e84e                	sd	s3,16(sp)
 10021a0:	e15ff0ef          	jal	ra,1001fb4 <__spl_start+0xe5c>
 10021a4:	842a                	mv	s0,a0
 10021a6:	06055463          	bgez	a0,100220e <__spl_start+0x10b6>
 10021aa:	00006597          	auipc	a1,0x6
 10021ae:	63658593          	addi	a1,a1,1590 # 10087e0 <__spl_start+0x7688>
 10021b2:	00008517          	auipc	a0,0x8
 10021b6:	12650513          	addi	a0,a0,294 # 100a2d8 <__spl_start+0x9180>
 10021ba:	516030ef          	jal	ra,10056d0 <__spl_start+0x4578>
 10021be:	0d81b583          	ld	a1,216(gp)
 10021c2:	c1a5                	beqz	a1,1002222 <__spl_start+0x10ca>
 10021c4:	41dc                	lw	a5,4(a1)
 10021c6:	00ff06b7          	lui	a3,0xff0
 10021ca:	854e                	mv	a0,s3
 10021cc:	0187d71b          	srliw	a4,a5,0x18
 10021d0:	0187961b          	slliw	a2,a5,0x18
 10021d4:	8e59                	or	a2,a2,a4
 10021d6:	0087971b          	slliw	a4,a5,0x8
 10021da:	8f75                	and	a4,a4,a3
 10021dc:	8e59                	or	a2,a2,a4
 10021de:	6741                	lui	a4,0x10
 10021e0:	0087d79b          	srliw	a5,a5,0x8
 10021e4:	f0070713          	addi	a4,a4,-256 # ff00 <_start-0xff0100>
 10021e8:	8ff9                	and	a5,a5,a4
 10021ea:	8e5d                	or	a2,a2,a5
 10021ec:	1602                	slli	a2,a2,0x20
 10021ee:	9201                	srli	a2,a2,0x20
 10021f0:	8c9ff0ef          	jal	ra,1001ab8 <__spl_start+0x960>
 10021f4:	6542                	ld	a0,16(sp)
 10021f6:	7446                	ld	s0,112(sp)
 10021f8:	70e6                	ld	ra,120(sp)
 10021fa:	7906                	ld	s2,96(sp)
 10021fc:	69e6                	ld	s3,88(sp)
 10021fe:	6a46                	ld	s4,80(sp)
 1002200:	6aa6                	ld	s5,72(sp)
 1002202:	f088                	sd	a0,32(s1)
 1002204:	74a6                	ld	s1,104(sp)
 1002206:	6589                	lui	a1,0x2
 1002208:	6109                	addi	sp,sp,128
 100220a:	4470006f          	j	1002e50 <__spl_start+0x1cf8>
 100220e:	86aa                	mv	a3,a0
 1002210:	870a                	mv	a4,sp
 1002212:	864a                	mv	a2,s2
 1002214:	85d6                	mv	a1,s5
 1002216:	8552                	mv	a0,s4
 1002218:	df1ff0ef          	jal	ra,1002008 <__spl_start+0xeb0>
 100221c:	842a                	mv	s0,a0
 100221e:	fc055be3          	bgez	a0,10021f4 <__spl_start+0x109c>
 1002222:	70e6                	ld	ra,120(sp)
 1002224:	8522                	mv	a0,s0
 1002226:	7446                	ld	s0,112(sp)
 1002228:	74a6                	ld	s1,104(sp)
 100222a:	7906                	ld	s2,96(sp)
 100222c:	69e6                	ld	s3,88(sp)
 100222e:	6a46                	ld	s4,80(sp)
 1002230:	6aa6                	ld	s5,72(sp)
 1002232:	6109                	addi	sp,sp,128
 1002234:	8082                	ret
 1002236:	8082                	ret
 1002238:	4501                	li	a0,0
 100223a:	8082                	ret
 100223c:	712d                	addi	sp,sp,-288
 100223e:	ea22                	sd	s0,272(sp)
 1002240:	e626                	sd	s1,264(sp)
 1002242:	e24a                	sd	s2,256(sp)
 1002244:	fdce                	sd	s3,248(sp)
 1002246:	f9d2                	sd	s4,240(sp)
 1002248:	f1da                	sd	s6,224(sp)
 100224a:	ee06                	sd	ra,280(sp)
 100224c:	f5d6                	sd	s5,232(sp)
 100224e:	edde                	sd	s7,216(sp)
 1002250:	e9e2                	sd	s8,208(sp)
 1002252:	e5e6                	sd	s9,200(sp)
 1002254:	e1ea                	sd	s10,192(sp)
 1002256:	fd6e                	sd	s11,184(sp)
 1002258:	42dc                	lw	a5,4(a3)
 100225a:	842a                	mv	s0,a0
 100225c:	00ff06b7          	lui	a3,0xff0
 1002260:	0187d71b          	srliw	a4,a5,0x18
 1002264:	0187951b          	slliw	a0,a5,0x18
 1002268:	8d59                	or	a0,a0,a4
 100226a:	0087971b          	slliw	a4,a5,0x8
 100226e:	8f75                	and	a4,a4,a3
 1002270:	8d59                	or	a0,a0,a4
 1002272:	6741                	lui	a4,0x10
 1002274:	f0070713          	addi	a4,a4,-256 # ff00 <_start-0xff0100>
 1002278:	0087d79b          	srliw	a5,a5,0x8
 100227c:	8ff9                	and	a5,a5,a4
 100227e:	8d5d                	or	a0,a0,a5
 1002280:	250d                	addiw	a0,a0,3
 1002282:	9971                	andi	a0,a0,-4
 1002284:	1502                	slli	a0,a0,0x20
 1002286:	9101                	srli	a0,a0,0x20
 1002288:	0000a317          	auipc	t1,0xa
 100228c:	34833303          	ld	t1,840(t1) # 100c5d0 <__spl_start+0xb478>
 1002290:	89ae                	mv	s3,a1
 1002292:	8b32                	mv	s6,a2
 1002294:	9302                	jalr	t1
 1002296:	00350793          	addi	a5,a0,3
 100229a:	9bf1                	andi	a5,a5,-4
 100229c:	f0be                	sd	a5,96(sp)
 100229e:	0189b783          	ld	a5,24(s3)
 10022a2:	0109a903          	lw	s2,16(s3)
 10022a6:	8a2a                	mv	s4,a0
 10022a8:	0005049b          	sext.w	s1,a0
 10022ac:	e791                	bnez	a5,10022b8 <__spl_start+0x1160>
 10022ae:	012484bb          	addw	s1,s1,s2
 10022b2:	34fd                	addiw	s1,s1,-1
 10022b4:	0324c4bb          	divw	s1,s1,s2
 10022b8:	0299093b          	mulw	s2,s2,s1
 10022bc:	854a                	mv	a0,s2
 10022be:	7d9000ef          	jal	ra,1003296 <__spl_start+0x213e>
 10022c2:	86aa                	mv	a3,a0
 10022c4:	e11d                	bnez	a0,10022ea <__spl_start+0x1192>
 10022c6:	85ca                	mv	a1,s2
 10022c8:	00008517          	auipc	a0,0x8
 10022cc:	26050513          	addi	a0,a0,608 # 100a528 <__spl_start+0x93d0>
 10022d0:	400030ef          	jal	ra,10056d0 <__spl_start+0x4578>
 10022d4:	00008517          	auipc	a0,0x8
 10022d8:	27c50513          	addi	a0,a0,636 # 100a550 <__spl_start+0x93f8>
 10022dc:	3f4030ef          	jal	ra,10056d0 <__spl_start+0x4578>
 10022e0:	85ca                	mv	a1,s2
 10022e2:	4501                	li	a0,0
 10022e4:	93fff0ef          	jal	ra,1001c22 <__spl_start+0xaca>
 10022e8:	86aa                	mv	a3,a0
 10022ea:	0209b783          	ld	a5,32(s3)
 10022ee:	8626                	mv	a2,s1
 10022f0:	85da                	mv	a1,s6
 10022f2:	854e                	mv	a0,s3
 10022f4:	e436                	sd	a3,8(sp)
 10022f6:	9782                	jalr	a5
 10022f8:	66a2                	ld	a3,8(sp)
 10022fa:	872a                	mv	a4,a0
 10022fc:	8626                	mv	a2,s1
 10022fe:	892a                	mv	s2,a0
 1002300:	87d2                	mv	a5,s4
 1002302:	85da                	mv	a1,s6
 1002304:	00008517          	auipc	a0,0x8
 1002308:	27450513          	addi	a0,a0,628 # 100a578 <__spl_start+0x9420>
 100230c:	ecb6                	sd	a3,88(sp)
 100230e:	54ed                	li	s1,-5
 1002310:	3c0030ef          	jal	ra,10056d0 <__spl_start+0x4578>
 1002314:	04090563          	beqz	s2,100235e <__spl_start+0x1206>
 1002318:	0000a317          	auipc	t1,0xa
 100231c:	29833303          	ld	t1,664(t1) # 100c5b0 <__spl_start+0xb458>
 1002320:	9302                	jalr	t1
 1002322:	4481                	li	s1,0
 1002324:	ed0d                	bnez	a0,100235e <__spl_start+0x1206>
 1002326:	6566                	ld	a0,88(sp)
 1002328:	54a9                	li	s1,-22
 100232a:	027000ef          	jal	ra,1002b50 <__spl_start+0x19f8>
 100232e:	d6aa                	sw	a0,108(sp)
 1002330:	02054763          	bltz	a0,100235e <__spl_start+0x1206>
 1002334:	6566                	ld	a0,88(sp)
 1002336:	00008597          	auipc	a1,0x8
 100233a:	28258593          	addi	a1,a1,642 # 100a5b8 <__spl_start+0x9460>
 100233e:	216020ef          	jal	ra,1004554 <__spl_start+0x33fc>
 1002342:	d4aa                	sw	a0,104(sp)
 1002344:	862a                	mv	a2,a0
 1002346:	02055c63          	bgez	a0,100237e <__spl_start+0x1226>
 100234a:	00006597          	auipc	a1,0x6
 100234e:	4fe58593          	addi	a1,a1,1278 # 1008848 <__spl_start+0x76f0>
 1002352:	00008517          	auipc	a0,0x8
 1002356:	26e50513          	addi	a0,a0,622 # 100a5c0 <__spl_start+0x9468>
 100235a:	376030ef          	jal	ra,10056d0 <__spl_start+0x4578>
 100235e:	60f2                	ld	ra,280(sp)
 1002360:	6452                	ld	s0,272(sp)
 1002362:	6912                	ld	s2,256(sp)
 1002364:	79ee                	ld	s3,248(sp)
 1002366:	7a4e                	ld	s4,240(sp)
 1002368:	7aae                	ld	s5,232(sp)
 100236a:	7b0e                	ld	s6,224(sp)
 100236c:	6bee                	ld	s7,216(sp)
 100236e:	6c4e                	ld	s8,208(sp)
 1002370:	6cae                	ld	s9,200(sp)
 1002372:	6d0e                	ld	s10,192(sp)
 1002374:	7dea                	ld	s11,184(sp)
 1002376:	8526                	mv	a0,s1
 1002378:	64b2                	ld	s1,264(sp)
 100237a:	6115                	addi	sp,sp,288
 100237c:	8082                	ret
 100237e:	05810a13          	addi	s4,sp,88
 1002382:	4601                	li	a2,0
 1002384:	00008597          	auipc	a1,0x8
 1002388:	26458593          	addi	a1,a1,612 # 100a5e8 <__spl_start+0x9490>
 100238c:	8552                	mv	a0,s4
 100238e:	c27ff0ef          	jal	ra,1001fb4 <__spl_start+0xe5c>
 1002392:	892a                	mv	s2,a0
 1002394:	4a81                	li	s5,0
 1002396:	04055163          	bgez	a0,10023d8 <__spl_start+0x1280>
 100239a:	00008517          	auipc	a0,0x8
 100239e:	25e50513          	addi	a0,a0,606 # 100a5f8 <__spl_start+0x94a0>
 10023a2:	32e030ef          	jal	ra,10056d0 <__spl_start+0x4578>
 10023a6:	4601                	li	a2,0
 10023a8:	00008597          	auipc	a1,0x8
 10023ac:	28858593          	addi	a1,a1,648 # 100a630 <__spl_start+0x94d8>
 10023b0:	8552                	mv	a0,s4
 10023b2:	c03ff0ef          	jal	ra,1001fb4 <__spl_start+0xe5c>
 10023b6:	892a                	mv	s2,a0
 10023b8:	00055f63          	bgez	a0,10023d6 <__spl_start+0x127e>
 10023bc:	862a                	mv	a2,a0
 10023be:	00006597          	auipc	a1,0x6
 10023c2:	4ba58593          	addi	a1,a1,1210 # 1008878 <__spl_start+0x7720>
 10023c6:	00008517          	auipc	a0,0x8
 10023ca:	27a50513          	addi	a0,a0,634 # 100a640 <__spl_start+0x94e8>
 10023ce:	302030ef          	jal	ra,10056d0 <__spl_start+0x4578>
 10023d2:	54fd                	li	s1,-1
 10023d4:	b769                	j	100235e <__spl_start+0x1206>
 10023d6:	4a85                	li	s5,1
 10023d8:	8722                	mv	a4,s0
 10023da:	86ca                	mv	a3,s2
 10023dc:	8652                	mv	a2,s4
 10023de:	85da                	mv	a1,s6
 10023e0:	854e                	mv	a0,s3
 10023e2:	c27ff0ef          	jal	ra,1002008 <__spl_start+0xeb0>
 10023e6:	84aa                	mv	s1,a0
 10023e8:	f93d                	bnez	a0,100235e <__spl_start+0x1206>
 10023ea:	6566                	ld	a0,88(sp)
 10023ec:	00840613          	addi	a2,s0,8 # ffffffffffffd008 <__spl_src_start+0xfffffffffefefa60>
 10023f0:	85ca                	mv	a1,s2
 10023f2:	6f8010ef          	jal	ra,1003aea <__spl_start+0x2992>
 10023f6:	e925                	bnez	a0,1002466 <__spl_start+0x130e>
 10023f8:	00844503          	lbu	a0,8(s0)
 10023fc:	606010ef          	jal	ra,1003a02 <__spl_start+0x28aa>
 1002400:	85aa                	mv	a1,a0
 1002402:	00008517          	auipc	a0,0x8
 1002406:	26650513          	addi	a0,a0,614 # 100a668 <__spl_start+0x9510>
 100240a:	2c6030ef          	jal	ra,10056d0 <__spl_start+0x4578>
 100240e:	00844703          	lbu	a4,8(s0)
 1002412:	47c5                	li	a5,17
 1002414:	00f71f63          	bne	a4,a5,1002432 <__spl_start+0x12da>
 1002418:	86d2                	mv	a3,s4
 100241a:	865a                	mv	a2,s6
 100241c:	85ce                	mv	a1,s3
 100241e:	8522                	mv	a0,s0
 1002420:	d53ff0ef          	jal	ra,1002172 <__spl_start+0x101a>
 1002424:	00055763          	bgez	a0,1002432 <__spl_start+0x12da>
 1002428:	00844703          	lbu	a4,8(s0)
 100242c:	47c5                	li	a5,17
 100242e:	14f71563          	bne	a4,a5,1002578 <__spl_start+0x1420>
 1002432:	04f10793          	addi	a5,sp,79
 1002436:	00008b97          	auipc	s7,0x8
 100243a:	1fab8b93          	addi	s7,s7,506 # 100a630 <__spl_start+0x94d8>
 100243e:	07010c93          	addi	s9,sp,112
 1002442:	e43e                	sd	a5,8(sp)
 1002444:	5d7d                	li	s10,-1
 1002446:	05010d93          	addi	s11,sp,80
 100244a:	8656                	mv	a2,s5
 100244c:	85de                	mv	a1,s7
 100244e:	8552                	mv	a0,s4
 1002450:	040107a3          	sb	zero,79(sp)
 1002454:	b61ff0ef          	jal	ra,1001fb4 <__spl_start+0xe5c>
 1002458:	8c2a                	mv	s8,a0
 100245a:	10054363          	bltz	a0,1002560 <__spl_start+0x1408>
 100245e:	01251863          	bne	a0,s2,100246e <__spl_start+0x1316>
 1002462:	2a85                	addiw	s5,s5,1
 1002464:	b7dd                	j	100244a <__spl_start+0x12f2>
 1002466:	47c5                	li	a5,17
 1002468:	00f40423          	sb	a5,8(s0)
 100246c:	b775                	j	1002418 <__spl_start+0x12c0>
 100246e:	86aa                	mv	a3,a0
 1002470:	8766                	mv	a4,s9
 1002472:	8652                	mv	a2,s4
 1002474:	85da                	mv	a1,s6
 1002476:	854e                	mv	a0,s3
 1002478:	e102                	sd	zero,128(sp)
 100247a:	b8fff0ef          	jal	ra,1002008 <__spl_start+0xeb0>
 100247e:	86aa                	mv	a3,a0
 1002480:	02055163          	bgez	a0,10024a2 <__spl_start+0x134a>
 1002484:	e42a                	sd	a0,8(sp)
 1002486:	8656                	mv	a2,s5
 1002488:	00006597          	auipc	a1,0x6
 100248c:	3f058593          	addi	a1,a1,1008 # 1008878 <__spl_start+0x7720>
 1002490:	00008517          	auipc	a0,0x8
 1002494:	1e850513          	addi	a0,a0,488 # 100a678 <__spl_start+0x9520>
 1002498:	238030ef          	jal	ra,10056d0 <__spl_start+0x4578>
 100249c:	66a2                	ld	a3,8(sp)
 100249e:	84b6                	mv	s1,a3
 10024a0:	bd7d                	j	100235e <__spl_start+0x1206>
 10024a2:	6622                	ld	a2,8(sp)
 10024a4:	6566                	ld	a0,88(sp)
 10024a6:	85e2                	mv	a1,s8
 10024a8:	642010ef          	jal	ra,1003aea <__spl_start+0x2992>
 10024ac:	ed01                	bnez	a0,10024c4 <__spl_start+0x136c>
 10024ae:	04f14503          	lbu	a0,79(sp)
 10024b2:	550010ef          	jal	ra,1003a02 <__spl_start+0x28aa>
 10024b6:	85aa                	mv	a1,a0
 10024b8:	00008517          	auipc	a0,0x8
 10024bc:	1f850513          	addi	a0,a0,504 # 100a6b0 <__spl_start+0x9558>
 10024c0:	210030ef          	jal	ra,10056d0 <__spl_start+0x4578>
 10024c4:	04f14783          	lbu	a5,79(sp)
 10024c8:	4745                	li	a4,17
 10024ca:	00e79a63          	bne	a5,a4,10024de <__spl_start+0x1386>
 10024ce:	86d2                	mv	a3,s4
 10024d0:	865a                	mv	a2,s6
 10024d2:	85ce                	mv	a1,s3
 10024d4:	8566                	mv	a0,s9
 10024d6:	c9dff0ef          	jal	ra,1002172 <__spl_start+0x101a>
 10024da:	67ca                	ld	a5,144(sp)
 10024dc:	f01c                	sd	a5,32(s0)
 10024de:	6c1c                	ld	a5,24(s0)
 10024e0:	01a79663          	bne	a5,s10,10024ec <__spl_start+0x1394>
 10024e4:	67aa                	ld	a5,136(sp)
 10024e6:	01a78363          	beq	a5,s10,10024ec <__spl_start+0x1394>
 10024ea:	ec1c                	sd	a5,24(s0)
 10024ec:	02043c03          	ld	s8,32(s0)
 10024f0:	f60c09e3          	beqz	s8,1002462 <__spl_start+0x130a>
 10024f4:	86ee                	mv	a3,s11
 10024f6:	8656                	mv	a2,s5
 10024f8:	85de                	mv	a1,s7
 10024fa:	8552                	mv	a0,s4
 10024fc:	a3dff0ef          	jal	ra,1001f38 <__spl_start+0xde0>
 1002500:	f60541e3          	bltz	a0,1002462 <__spl_start+0x130a>
 1002504:	8656                	mv	a2,s5
 1002506:	85de                	mv	a1,s7
 1002508:	8552                	mv	a0,s4
 100250a:	aabff0ef          	jal	ra,1001fb4 <__spl_start+0xe5c>
 100250e:	6346                	ld	t1,80(sp)
 1002510:	6e0a                	ld	t3,128(sp)
 1002512:	477a                	lw	a4,156(sp)
 1002514:	67aa                	ld	a5,136(sp)
 1002516:	85aa                	mv	a1,a0
 1002518:	ec2a                	sd	a0,24(sp)
 100251a:	6566                	ld	a0,88(sp)
 100251c:	4681                	li	a3,0
 100251e:	00008617          	auipc	a2,0x8
 1002522:	1a260613          	addi	a2,a2,418 # 100a6c0 <__spl_start+0x9568>
 1002526:	fc1a                	sd	t1,56(sp)
 1002528:	f872                	sd	t3,48(sp)
 100252a:	f43a                	sd	a4,40(sp)
 100252c:	f03e                	sd	a5,32(sp)
 100252e:	717010ef          	jal	ra,1004444 <__spl_start+0x32ec>
 1002532:	65e2                	ld	a1,24(sp)
 1002534:	e82a                	sd	a0,16(sp)
 1002536:	6566                	ld	a0,88(sp)
 1002538:	4681                	li	a3,0
 100253a:	00008617          	auipc	a2,0x8
 100253e:	18e60613          	addi	a2,a2,398 # 100a6c8 <__spl_start+0x9570>
 1002542:	703010ef          	jal	ra,1004444 <__spl_start+0x32ec>
 1002546:	7e42                	ld	t3,48(sp)
 1002548:	7362                	ld	t1,56(sp)
 100254a:	6842                	ld	a6,16(sp)
 100254c:	7782                	ld	a5,32(sp)
 100254e:	7722                	ld	a4,40(sp)
 1002550:	88aa                	mv	a7,a0
 1002552:	86f2                	mv	a3,t3
 1002554:	861a                	mv	a2,t1
 1002556:	85d6                	mv	a1,s5
 1002558:	8562                	mv	a0,s8
 100255a:	71e000ef          	jal	ra,1002c78 <__spl_start+0x1b20>
 100255e:	b711                	j	1002462 <__spl_start+0x130a>
 1002560:	6c1c                	ld	a5,24(s0)
 1002562:	5775                	li	a4,-3
 1002564:	17fd                	addi	a5,a5,-1
 1002566:	00f77463          	bgeu	a4,a5,100256e <__spl_start+0x1416>
 100256a:	681c                	ld	a5,16(s0)
 100256c:	ec1c                	sd	a5,24(s0)
 100256e:	581c                	lw	a5,48(s0)
 1002570:	0027e793          	ori	a5,a5,2
 1002574:	d81c                	sw	a5,48(s0)
 1002576:	b3e5                	j	100235e <__spl_start+0x1206>
 1002578:	84aa                	mv	s1,a0
 100257a:	b3d5                	j	100235e <__spl_start+0x1206>
 100257c:	715d                	addi	sp,sp,-80
 100257e:	e486                	sd	ra,72(sp)
 1002580:	e0a2                	sd	s0,64(sp)
 1002582:	fc26                	sd	s1,56(sp)
 1002584:	f84a                	sd	s2,48(sp)
 1002586:	f44e                	sd	s3,40(sp)
 1002588:	7100                	ld	s0,32(a0)
 100258a:	e809                	bnez	s0,100259c <__spl_start+0x1444>
 100258c:	00008517          	auipc	a0,0x8
 1002590:	ddc50513          	addi	a0,a0,-548 # 100a368 <__spl_start+0x9210>
 1002594:	13c030ef          	jal	ra,10056d0 <__spl_start+0x4578>
 1002598:	37f020ef          	jal	ra,1005116 <__spl_start+0x3fbe>
 100259c:	00008597          	auipc	a1,0x8
 10025a0:	df458593          	addi	a1,a1,-524 # 100a390 <__spl_start+0x9238>
 10025a4:	84aa                	mv	s1,a0
 10025a6:	8522                	mv	a0,s0
 10025a8:	7ad010ef          	jal	ra,1004554 <__spl_start+0x33fc>
 10025ac:	85aa                	mv	a1,a0
 10025ae:	00055a63          	bgez	a0,10025c2 <__spl_start+0x146a>
 10025b2:	55b5                	li	a1,-19
 10025b4:	00008517          	auipc	a0,0x8
 10025b8:	dec50513          	addi	a0,a0,-532 # 100a3a0 <__spl_start+0x9248>
 10025bc:	114030ef          	jal	ra,10056d0 <__spl_start+0x4578>
 10025c0:	bfe1                	j	1002598 <__spl_start+0x1440>
 10025c2:	8522                	mv	a0,s0
 10025c4:	119010ef          	jal	ra,1003edc <__spl_start+0x2d84>
 10025c8:	85aa                	mv	a1,a0
 10025ca:	00008917          	auipc	s2,0x8
 10025ce:	0fe90913          	addi	s2,s2,254 # 100a6c8 <__spl_start+0x9570>
 10025d2:	49c5                	li	s3,17
 10025d4:	fc05cfe3          	bltz	a1,10025b2 <__spl_start+0x145a>
 10025d8:	4681                	li	a3,0
 10025da:	864a                	mv	a2,s2
 10025dc:	8522                	mv	a0,s0
 10025de:	e02e                	sd	a1,0(sp)
 10025e0:	665010ef          	jal	ra,1004444 <__spl_start+0x32ec>
 10025e4:	6582                	ld	a1,0(sp)
 10025e6:	30050d63          	beqz	a0,1002900 <__spl_start+0x17a8>
 10025ea:	45e010ef          	jal	ra,1003a48 <__spl_start+0x28f0>
 10025ee:	6582                	ld	a1,0(sp)
 10025f0:	31351863          	bne	a0,s3,1002900 <__spl_start+0x17a8>
 10025f4:	7088                	ld	a0,32(s1)
 10025f6:	0830                	addi	a2,sp,24
 10025f8:	e432                	sd	a2,8(sp)
 10025fa:	532010ef          	jal	ra,1003b2c <__spl_start+0x29d4>
 10025fe:	6582                	ld	a1,0(sp)
 1002600:	6622                	ld	a2,8(sp)
 1002602:	c501                	beqz	a0,100260a <__spl_start+0x14b2>
 1002604:	7088                	ld	a0,32(s1)
 1002606:	51a010ef          	jal	ra,1003b20 <__spl_start+0x29c8>
 100260a:	0000a417          	auipc	s0,0xa
 100260e:	f3643403          	ld	s0,-202(s0) # 100c540 <__spl_start+0xb3e8>
 1002612:	04f00793          	li	a5,79
 1002616:	00f40023          	sb	a5,0(s0)
 100261a:	05300793          	li	a5,83
 100261e:	00f400a3          	sb	a5,1(s0)
 1002622:	04200793          	li	a5,66
 1002626:	00f40123          	sb	a5,2(s0)
 100262a:	04900793          	li	a5,73
 100262e:	00f401a3          	sb	a5,3(s0)
 1002632:	67e2                	ld	a5,24(sp)
 1002634:	4709                	li	a4,2
 1002636:	00e40423          	sb	a4,8(s0)
 100263a:	0087d693          	srli	a3,a5,0x8
 100263e:	00d408a3          	sb	a3,17(s0)
 1002642:	0107d693          	srli	a3,a5,0x10
 1002646:	00d40923          	sb	a3,18(s0)
 100264a:	0187d69b          	srliw	a3,a5,0x18
 100264e:	00d409a3          	sb	a3,19(s0)
 1002652:	0207d693          	srli	a3,a5,0x20
 1002656:	00d40a23          	sb	a3,20(s0)
 100265a:	0287d693          	srli	a3,a5,0x28
 100265e:	00f40823          	sb	a5,16(s0)
 1002662:	00d40aa3          	sb	a3,21(s0)
 1002666:	0307d693          	srli	a3,a5,0x30
 100266a:	93e1                	srli	a5,a5,0x38
 100266c:	00f40ba3          	sb	a5,23(s0)
 1002670:	4785                	li	a5,1
 1002672:	00d40b23          	sb	a3,22(s0)
 1002676:	00f40c23          	sb	a5,24(s0)
 100267a:	00040223          	sb	zero,4(s0)
 100267e:	000402a3          	sb	zero,5(s0)
 1002682:	00040323          	sb	zero,6(s0)
 1002686:	000403a3          	sb	zero,7(s0)
 100268a:	000404a3          	sb	zero,9(s0)
 100268e:	00040523          	sb	zero,10(s0)
 1002692:	000405a3          	sb	zero,11(s0)
 1002696:	00040623          	sb	zero,12(s0)
 100269a:	000406a3          	sb	zero,13(s0)
 100269e:	00040723          	sb	zero,14(s0)
 10026a2:	000407a3          	sb	zero,15(s0)
 10026a6:	00040ca3          	sb	zero,25(s0)
 10026aa:	00040d23          	sb	zero,26(s0)
 10026ae:	00040da3          	sb	zero,27(s0)
 10026b2:	00040e23          	sb	zero,28(s0)
 10026b6:	00040ea3          	sb	zero,29(s0)
 10026ba:	00040f23          	sb	zero,30(s0)
 10026be:	00040fa3          	sb	zero,31(s0)
 10026c2:	1401b783          	ld	a5,320(gp)
 10026c6:	02e40023          	sb	a4,32(s0)
 10026ca:	020400a3          	sb	zero,33(s0)
 10026ce:	0087d713          	srli	a4,a5,0x8
 10026d2:	02e404a3          	sb	a4,41(s0)
 10026d6:	0107d713          	srli	a4,a5,0x10
 10026da:	02e40523          	sb	a4,42(s0)
 10026de:	0187d71b          	srliw	a4,a5,0x18
 10026e2:	02e405a3          	sb	a4,43(s0)
 10026e6:	0207d713          	srli	a4,a5,0x20
 10026ea:	02e40623          	sb	a4,44(s0)
 10026ee:	0287d713          	srli	a4,a5,0x28
 10026f2:	02f40423          	sb	a5,40(s0)
 10026f6:	02e406a3          	sb	a4,45(s0)
 10026fa:	0307d713          	srli	a4,a5,0x30
 10026fe:	93e1                	srli	a5,a5,0x38
 1002700:	02e40723          	sb	a4,46(s0)
 1002704:	02f407a3          	sb	a5,47(s0)
 1002708:	02040123          	sb	zero,34(s0)
 100270c:	020401a3          	sb	zero,35(s0)
 1002710:	02040223          	sb	zero,36(s0)
 1002714:	020402a3          	sb	zero,37(s0)
 1002718:	02040323          	sb	zero,38(s0)
 100271c:	020403a3          	sb	zero,39(s0)
 1002720:	0184b903          	ld	s2,24(s1)
 1002724:	e07fe0ef          	jal	ra,100152a <__spl_start+0x3d2>
 1002728:	00144703          	lbu	a4,1(s0)
 100272c:	00044783          	lbu	a5,0(s0)
 1002730:	00744583          	lbu	a1,7(s0)
 1002734:	0722                	slli	a4,a4,0x8
 1002736:	8f5d                	or	a4,a4,a5
 1002738:	00244783          	lbu	a5,2(s0)
 100273c:	15e2                	slli	a1,a1,0x38
 100273e:	00008517          	auipc	a0,0x8
 1002742:	c8250513          	addi	a0,a0,-894 # 100a3c0 <__spl_start+0x9268>
 1002746:	07c2                	slli	a5,a5,0x10
 1002748:	8fd9                	or	a5,a5,a4
 100274a:	00344703          	lbu	a4,3(s0)
 100274e:	0762                	slli	a4,a4,0x18
 1002750:	8f5d                	or	a4,a4,a5
 1002752:	00444783          	lbu	a5,4(s0)
 1002756:	1782                	slli	a5,a5,0x20
 1002758:	8fd9                	or	a5,a5,a4
 100275a:	00544703          	lbu	a4,5(s0)
 100275e:	1722                	slli	a4,a4,0x28
 1002760:	8f5d                	or	a4,a4,a5
 1002762:	00644783          	lbu	a5,6(s0)
 1002766:	17c2                	slli	a5,a5,0x30
 1002768:	8fd9                	or	a5,a5,a4
 100276a:	8ddd                	or	a1,a1,a5
 100276c:	765020ef          	jal	ra,10056d0 <__spl_start+0x4578>
 1002770:	00944703          	lbu	a4,9(s0)
 1002774:	00844783          	lbu	a5,8(s0)
 1002778:	00f44583          	lbu	a1,15(s0)
 100277c:	0722                	slli	a4,a4,0x8
 100277e:	8f5d                	or	a4,a4,a5
 1002780:	00a44783          	lbu	a5,10(s0)
 1002784:	15e2                	slli	a1,a1,0x38
 1002786:	00008517          	auipc	a0,0x8
 100278a:	c5a50513          	addi	a0,a0,-934 # 100a3e0 <__spl_start+0x9288>
 100278e:	07c2                	slli	a5,a5,0x10
 1002790:	8fd9                	or	a5,a5,a4
 1002792:	00b44703          	lbu	a4,11(s0)
 1002796:	0762                	slli	a4,a4,0x18
 1002798:	8f5d                	or	a4,a4,a5
 100279a:	00c44783          	lbu	a5,12(s0)
 100279e:	1782                	slli	a5,a5,0x20
 10027a0:	8fd9                	or	a5,a5,a4
 10027a2:	00d44703          	lbu	a4,13(s0)
 10027a6:	1722                	slli	a4,a4,0x28
 10027a8:	8f5d                	or	a4,a4,a5
 10027aa:	00e44783          	lbu	a5,14(s0)
 10027ae:	17c2                	slli	a5,a5,0x30
 10027b0:	8fd9                	or	a5,a5,a4
 10027b2:	8ddd                	or	a1,a1,a5
 10027b4:	71d020ef          	jal	ra,10056d0 <__spl_start+0x4578>
 10027b8:	01144703          	lbu	a4,17(s0)
 10027bc:	01044783          	lbu	a5,16(s0)
 10027c0:	01744583          	lbu	a1,23(s0)
 10027c4:	0722                	slli	a4,a4,0x8
 10027c6:	8f5d                	or	a4,a4,a5
 10027c8:	01244783          	lbu	a5,18(s0)
 10027cc:	15e2                	slli	a1,a1,0x38
 10027ce:	00008517          	auipc	a0,0x8
 10027d2:	c3250513          	addi	a0,a0,-974 # 100a400 <__spl_start+0x92a8>
 10027d6:	07c2                	slli	a5,a5,0x10
 10027d8:	8fd9                	or	a5,a5,a4
 10027da:	01344703          	lbu	a4,19(s0)
 10027de:	0762                	slli	a4,a4,0x18
 10027e0:	8f5d                	or	a4,a4,a5
 10027e2:	01444783          	lbu	a5,20(s0)
 10027e6:	1782                	slli	a5,a5,0x20
 10027e8:	8fd9                	or	a5,a5,a4
 10027ea:	01544703          	lbu	a4,21(s0)
 10027ee:	1722                	slli	a4,a4,0x28
 10027f0:	8f5d                	or	a4,a4,a5
 10027f2:	01644783          	lbu	a5,22(s0)
 10027f6:	17c2                	slli	a5,a5,0x30
 10027f8:	8fd9                	or	a5,a5,a4
 10027fa:	8ddd                	or	a1,a1,a5
 10027fc:	6d5020ef          	jal	ra,10056d0 <__spl_start+0x4578>
 1002800:	01944703          	lbu	a4,25(s0)
 1002804:	01844783          	lbu	a5,24(s0)
 1002808:	01f44583          	lbu	a1,31(s0)
 100280c:	0722                	slli	a4,a4,0x8
 100280e:	8f5d                	or	a4,a4,a5
 1002810:	01a44783          	lbu	a5,26(s0)
 1002814:	15e2                	slli	a1,a1,0x38
 1002816:	00008517          	auipc	a0,0x8
 100281a:	c0a50513          	addi	a0,a0,-1014 # 100a420 <__spl_start+0x92c8>
 100281e:	07c2                	slli	a5,a5,0x10
 1002820:	8fd9                	or	a5,a5,a4
 1002822:	01b44703          	lbu	a4,27(s0)
 1002826:	0762                	slli	a4,a4,0x18
 1002828:	8f5d                	or	a4,a4,a5
 100282a:	01c44783          	lbu	a5,28(s0)
 100282e:	1782                	slli	a5,a5,0x20
 1002830:	8fd9                	or	a5,a5,a4
 1002832:	01d44703          	lbu	a4,29(s0)
 1002836:	1722                	slli	a4,a4,0x28
 1002838:	8f5d                	or	a4,a4,a5
 100283a:	01e44783          	lbu	a5,30(s0)
 100283e:	17c2                	slli	a5,a5,0x30
 1002840:	8fd9                	or	a5,a5,a4
 1002842:	8ddd                	or	a1,a1,a5
 1002844:	68d020ef          	jal	ra,10056d0 <__spl_start+0x4578>
 1002848:	02144703          	lbu	a4,33(s0)
 100284c:	02044783          	lbu	a5,32(s0)
 1002850:	02744583          	lbu	a1,39(s0)
 1002854:	0722                	slli	a4,a4,0x8
 1002856:	8f5d                	or	a4,a4,a5
 1002858:	02244783          	lbu	a5,34(s0)
 100285c:	15e2                	slli	a1,a1,0x38
 100285e:	00008517          	auipc	a0,0x8
 1002862:	be250513          	addi	a0,a0,-1054 # 100a440 <__spl_start+0x92e8>
 1002866:	07c2                	slli	a5,a5,0x10
 1002868:	8fd9                	or	a5,a5,a4
 100286a:	02344703          	lbu	a4,35(s0)
 100286e:	0762                	slli	a4,a4,0x18
 1002870:	8f5d                	or	a4,a4,a5
 1002872:	02444783          	lbu	a5,36(s0)
 1002876:	1782                	slli	a5,a5,0x20
 1002878:	8fd9                	or	a5,a5,a4
 100287a:	02544703          	lbu	a4,37(s0)
 100287e:	1722                	slli	a4,a4,0x28
 1002880:	8f5d                	or	a4,a4,a5
 1002882:	02644783          	lbu	a5,38(s0)
 1002886:	17c2                	slli	a5,a5,0x30
 1002888:	8fd9                	or	a5,a5,a4
 100288a:	8ddd                	or	a1,a1,a5
 100288c:	645020ef          	jal	ra,10056d0 <__spl_start+0x4578>
 1002890:	02944703          	lbu	a4,41(s0)
 1002894:	02844783          	lbu	a5,40(s0)
 1002898:	02f44583          	lbu	a1,47(s0)
 100289c:	0722                	slli	a4,a4,0x8
 100289e:	8f5d                	or	a4,a4,a5
 10028a0:	02a44783          	lbu	a5,42(s0)
 10028a4:	15e2                	slli	a1,a1,0x38
 10028a6:	00008517          	auipc	a0,0x8
 10028aa:	bba50513          	addi	a0,a0,-1094 # 100a460 <__spl_start+0x9308>
 10028ae:	07c2                	slli	a5,a5,0x10
 10028b0:	8fd9                	or	a5,a5,a4
 10028b2:	02b44703          	lbu	a4,43(s0)
 10028b6:	0762                	slli	a4,a4,0x18
 10028b8:	8f5d                	or	a4,a4,a5
 10028ba:	02c44783          	lbu	a5,44(s0)
 10028be:	1782                	slli	a5,a5,0x20
 10028c0:	8fd9                	or	a5,a5,a4
 10028c2:	02d44703          	lbu	a4,45(s0)
 10028c6:	1722                	slli	a4,a4,0x28
 10028c8:	8f5d                	or	a4,a4,a5
 10028ca:	02e44783          	lbu	a5,46(s0)
 10028ce:	17c2                	slli	a5,a5,0x30
 10028d0:	8fd9                	or	a5,a5,a4
 10028d2:	8ddd                	or	a1,a1,a5
 10028d4:	5fd020ef          	jal	ra,10056d0 <__spl_start+0x4578>
 10028d8:	708c                	ld	a1,32(s1)
 10028da:	6c88                	ld	a0,24(s1)
 10028dc:	4685                	li	a3,1
 10028de:	8622                	mv	a2,s0
 10028e0:	e69fe0ef          	jal	ra,1001748 <__spl_start+0x5f0>
 10028e4:	ca051ae3          	bnez	a0,1002598 <__spl_start+0x1440>
 10028e8:	708c                	ld	a1,32(s1)
 10028ea:	1401b503          	ld	a0,320(gp)
 10028ee:	8622                	mv	a2,s0
 10028f0:	9902                	jalr	s2
 10028f2:	60a6                	ld	ra,72(sp)
 10028f4:	6406                	ld	s0,64(sp)
 10028f6:	74e2                	ld	s1,56(sp)
 10028f8:	7942                	ld	s2,48(sp)
 10028fa:	79a2                	ld	s3,40(sp)
 10028fc:	6161                	addi	sp,sp,80
 10028fe:	8082                	ret
 1002900:	8522                	mv	a0,s0
 1002902:	5fa010ef          	jal	ra,1003efc <__spl_start+0x2da4>
 1002906:	85aa                	mv	a1,a0
 1002908:	b1f1                	j	10025d4 <__spl_start+0x147c>
 100290a:	1141                	addi	sp,sp,-16
 100290c:	e022                	sd	s0,0(sp)
 100290e:	e406                	sd	ra,8(sp)
 1002910:	611c                	ld	a5,0(a0)
 1002912:	2581                	sext.w	a1,a1
 1002914:	8432                	mv	s0,a2
 1002916:	1887b503          	ld	a0,392(a5)
 100291a:	0e4040ef          	jal	ra,10069fe <__spl_start+0x58a6>
 100291e:	c111                	beqz	a0,1002922 <__spl_start+0x17ca>
 1002920:	4401                	li	s0,0
 1002922:	60a2                	ld	ra,8(sp)
 1002924:	8522                	mv	a0,s0
 1002926:	6402                	ld	s0,0(sp)
 1002928:	0141                	addi	sp,sp,16
 100292a:	8082                	ret
 100292c:	4501                	li	a0,0
 100292e:	8082                	ret
 1002930:	7159                	addi	sp,sp,-112
 1002932:	000f4637          	lui	a2,0xf4
 1002936:	e8ca                	sd	s2,80(sp)
 1002938:	468d                	li	a3,3
 100293a:	892a                	mv	s2,a0
 100293c:	24060613          	addi	a2,a2,576 # f4240 <_start-0xf0bdc0>
 1002940:	4581                	li	a1,0
 1002942:	4501                	li	a0,0
 1002944:	f486                	sd	ra,104(sp)
 1002946:	f0a2                	sd	s0,96(sp)
 1002948:	eca6                	sd	s1,88(sp)
 100294a:	e4ce                	sd	s3,72(sp)
 100294c:	e0d2                	sd	s4,64(sp)
 100294e:	0fa040ef          	jal	ra,1006a48 <__spl_start+0x58f0>
 1002952:	e10d                	bnez	a0,1002974 <__spl_start+0x181c>
 1002954:	00008517          	auipc	a0,0x8
 1002958:	e0450513          	addi	a0,a0,-508 # 100a758 <__spl_start+0x9600>
 100295c:	640000ef          	jal	ra,1002f9c <__spl_start+0x1e44>
 1002960:	5435                	li	s0,-19
 1002962:	70a6                	ld	ra,104(sp)
 1002964:	8522                	mv	a0,s0
 1002966:	7406                	ld	s0,96(sp)
 1002968:	64e6                	ld	s1,88(sp)
 100296a:	6946                	ld	s2,80(sp)
 100296c:	69a6                	ld	s3,72(sp)
 100296e:	6a06                	ld	s4,64(sp)
 1002970:	6165                	addi	sp,sp,112
 1002972:	8082                	ret
 1002974:	0000a317          	auipc	t1,0xa
 1002978:	c2433303          	ld	t1,-988(t1) # 100c598 <__spl_start+0xb440>
 100297c:	84aa                	mv	s1,a0
 100297e:	9302                	jalr	t1
 1002980:	0005061b          	sext.w	a2,a0
 1002984:	04000593          	li	a1,64
 1002988:	fc000513          	li	a0,-64
 100298c:	e432                	sd	a2,8(sp)
 100298e:	a94ff0ef          	jal	ra,1001c22 <__spl_start+0xaca>
 1002992:	6622                	ld	a2,8(sp)
 1002994:	8a2a                	mv	s4,a0
 1002996:	0d81b503          	ld	a0,216(gp)
 100299a:	00008597          	auipc	a1,0x8
 100299e:	dd658593          	addi	a1,a1,-554 # 100a770 <__spl_start+0x9618>
 10029a2:	5d6020ef          	jal	ra,1004f78 <__spl_start+0x3e20>
 10029a6:	0005099b          	sext.w	s3,a0
 10029aa:	1884b503          	ld	a0,392(s1)
 10029ae:	86d2                	mv	a3,s4
 10029b0:	04000613          	li	a2,64
 10029b4:	85ce                	mv	a1,s3
 10029b6:	048040ef          	jal	ra,10069fe <__spl_start+0x58a6>
 10029ba:	842a                	mv	s0,a0
 10029bc:	cd09                	beqz	a0,10029d6 <__spl_start+0x187e>
 10029be:	862a                	mv	a2,a0
 10029c0:	00006597          	auipc	a1,0x6
 10029c4:	e3858593          	addi	a1,a1,-456 # 10087f8 <__spl_start+0x76a0>
 10029c8:	00008517          	auipc	a0,0x8
 10029cc:	dc850513          	addi	a0,a0,-568 # 100a790 <__spl_start+0x9638>
 10029d0:	501020ef          	jal	ra,10056d0 <__spl_start+0x4578>
 10029d4:	b779                	j	1002962 <__spl_start+0x180a>
 10029d6:	000a2703          	lw	a4,0(s4) # ffffffffffffa000 <__spl_src_start+0xfffffffffefeca58>
 10029da:	00ff0637          	lui	a2,0xff0
 10029de:	0187569b          	srliw	a3,a4,0x18
 10029e2:	0187179b          	slliw	a5,a4,0x18
 10029e6:	8fd5                	or	a5,a5,a3
 10029e8:	0087169b          	slliw	a3,a4,0x8
 10029ec:	8ef1                	and	a3,a3,a2
 10029ee:	8fd5                	or	a5,a5,a3
 10029f0:	66c1                	lui	a3,0x10
 10029f2:	0087571b          	srliw	a4,a4,0x8
 10029f6:	f0068693          	addi	a3,a3,-256 # ff00 <_start-0xff0100>
 10029fa:	8f75                	and	a4,a4,a3
 10029fc:	8fd9                	or	a5,a5,a4
 10029fe:	d00e0737          	lui	a4,0xd00e0
 1002a02:	2781                	sext.w	a5,a5
 1002a04:	eed70713          	addi	a4,a4,-275 # ffffffffd00dfeed <__spl_src_start+0xffffffffcf0d2945>
 1002a08:	02e79c63          	bne	a5,a4,1002a40 <__spl_start+0x18e8>
 1002a0c:	00008517          	auipc	a0,0x8
 1002a10:	db450513          	addi	a0,a0,-588 # 100a7c0 <__spl_start+0x9668>
 1002a14:	4bd020ef          	jal	ra,10056d0 <__spl_start+0x4578>
 1002a18:	4785                	li	a5,1
 1002a1a:	02099613          	slli	a2,s3,0x20
 1002a1e:	d43e                	sw	a5,40(sp)
 1002a20:	86d2                	mv	a3,s4
 1002a22:	00000797          	auipc	a5,0x0
 1002a26:	ee878793          	addi	a5,a5,-280 # 100290a <__spl_start+0x17b2>
 1002a2a:	9201                	srli	a2,a2,0x20
 1002a2c:	082c                	addi	a1,sp,24
 1002a2e:	854a                	mv	a0,s2
 1002a30:	ec26                	sd	s1,24(sp)
 1002a32:	f002                	sd	zero,32(sp)
 1002a34:	f802                	sd	zero,48(sp)
 1002a36:	fc3e                	sd	a5,56(sp)
 1002a38:	805ff0ef          	jal	ra,100223c <__spl_start+0x10e4>
 1002a3c:	842a                	mv	s0,a0
 1002a3e:	b715                	j	1002962 <__spl_start+0x180a>
 1002a40:	85d2                	mv	a1,s4
 1002a42:	854a                	mv	a0,s2
 1002a44:	a36ff0ef          	jal	ra,1001c7a <__spl_start+0xb22>
 1002a48:	842a                	mv	s0,a0
 1002a4a:	f0051ce3          	bnez	a0,1002962 <__spl_start+0x180a>
 1002a4e:	7406                	ld	s0,96(sp)
 1002a50:	01093683          	ld	a3,16(s2)
 1002a54:	02c96603          	lwu	a2,44(s2)
 1002a58:	1884b503          	ld	a0,392(s1)
 1002a5c:	70a6                	ld	ra,104(sp)
 1002a5e:	64e6                	ld	s1,88(sp)
 1002a60:	6946                	ld	s2,80(sp)
 1002a62:	6a06                	ld	s4,64(sp)
 1002a64:	85ce                	mv	a1,s3
 1002a66:	69a6                	ld	s3,72(sp)
 1002a68:	6165                	addi	sp,sp,112
 1002a6a:	7950306f          	j	10069fe <__spl_start+0x58a6>
 1002a6e:	47a5                	li	a5,9
 1002a70:	07f2                	slli	a5,a5,0x1c
 1002a72:	1141                	addi	sp,sp,-16
 1002a74:	95be                	add	a1,a1,a5
 1002a76:	8536                	mv	a0,a3
 1002a78:	e022                	sd	s0,0(sp)
 1002a7a:	e406                	sd	ra,8(sp)
 1002a7c:	8432                	mv	s0,a2
 1002a7e:	83aff0ef          	jal	ra,1001ab8 <__spl_start+0x960>
 1002a82:	60a2                	ld	ra,8(sp)
 1002a84:	8522                	mv	a0,s0
 1002a86:	6402                	ld	s0,0(sp)
 1002a88:	0141                	addi	sp,sp,16
 1002a8a:	8082                	ret
 1002a8c:	7139                	addi	sp,sp,-64
 1002a8e:	46a5                	li	a3,9
 1002a90:	fc06                	sd	ra,56(sp)
 1002a92:	f822                	sd	s0,48(sp)
 1002a94:	06f2                	slli	a3,a3,0x1c
 1002a96:	4298                	lw	a4,0(a3)
 1002a98:	00ff05b7          	lui	a1,0xff0
 1002a9c:	0187561b          	srliw	a2,a4,0x18
 1002aa0:	0187179b          	slliw	a5,a4,0x18
 1002aa4:	8fd1                	or	a5,a5,a2
 1002aa6:	0087161b          	slliw	a2,a4,0x8
 1002aaa:	8e6d                	and	a2,a2,a1
 1002aac:	8fd1                	or	a5,a5,a2
 1002aae:	6641                	lui	a2,0x10
 1002ab0:	0087571b          	srliw	a4,a4,0x8
 1002ab4:	f0060613          	addi	a2,a2,-256 # ff00 <_start-0xff0100>
 1002ab8:	8f71                	and	a4,a4,a2
 1002aba:	8fd9                	or	a5,a5,a4
 1002abc:	d00e0737          	lui	a4,0xd00e0
 1002ac0:	2781                	sext.w	a5,a5
 1002ac2:	eed70713          	addi	a4,a4,-275 # ffffffffd00dfeed <__spl_src_start+0xffffffffcf0d2945>
 1002ac6:	02e79263          	bne	a5,a4,1002aea <__spl_start+0x1992>
 1002aca:	4785                	li	a5,1
 1002acc:	cc3e                	sw	a5,24(sp)
 1002ace:	4601                	li	a2,0
 1002ad0:	00000797          	auipc	a5,0x0
 1002ad4:	f9e78793          	addi	a5,a5,-98 # 1002a6e <__spl_start+0x1916>
 1002ad8:	002c                	addi	a1,sp,8
 1002ada:	f43e                	sd	a5,40(sp)
 1002adc:	f60ff0ef          	jal	ra,100223c <__spl_start+0x10e4>
 1002ae0:	70e2                	ld	ra,56(sp)
 1002ae2:	7442                	ld	s0,48(sp)
 1002ae4:	4501                	li	a0,0
 1002ae6:	6121                	addi	sp,sp,64
 1002ae8:	8082                	ret
 1002aea:	0000a797          	auipc	a5,0xa
 1002aee:	b1e7b783          	ld	a5,-1250(a5) # 100c608 <__spl_start+0xb4b0>
 1002af2:	638c                	ld	a1,0(a5)
 1002af4:	57fd                	li	a5,-1
 1002af6:	842a                	mv	s0,a0
 1002af8:	00f59963          	bne	a1,a5,1002b0a <__spl_start+0x19b2>
 1002afc:	04000593          	li	a1,64
 1002b00:	fc000513          	li	a0,-64
 1002b04:	91eff0ef          	jal	ra,1001c22 <__spl_start+0xaca>
 1002b08:	85aa                	mv	a1,a0
 1002b0a:	8522                	mv	a0,s0
 1002b0c:	96eff0ef          	jal	ra,1001c7a <__spl_start+0xb22>
 1002b10:	bfc1                	j	1002ae0 <__spl_start+0x1988>
 1002b12:	81aa                	mv	gp,a0
 1002b14:	8082                	ret
 1002b16:	77f5                	lui	a5,0xffffd
 1002b18:	d7078793          	addi	a5,a5,-656 # ffffffffffffcd70 <__spl_src_start+0xfffffffffefef7c8>
 1002b1c:	953e                	add	a0,a0,a5
 1002b1e:	9941                	andi	a0,a0,-16
 1002b20:	8082                	ret
 1002b22:	1141                	addi	sp,sp,-16
 1002b24:	29000613          	li	a2,656
 1002b28:	4581                	li	a1,0
 1002b2a:	e406                	sd	ra,8(sp)
 1002b2c:	e022                	sd	s0,0(sp)
 1002b2e:	842a                	mv	s0,a0
 1002b30:	de9fe0ef          	jal	ra,1001918 <__spl_start+0x7c0>
 1002b34:	8522                	mv	a0,s0
 1002b36:	0000a317          	auipc	t1,0xa
 1002b3a:	aaa33303          	ld	t1,-1366(t1) # 100c5e0 <__spl_start+0xb488>
 1002b3e:	9302                	jalr	t1
 1002b40:	29040413          	addi	s0,s0,656
 1002b44:	1281b023          	sd	s0,288(gp)
 1002b48:	60a2                	ld	ra,8(sp)
 1002b4a:	6402                	ld	s0,0(sp)
 1002b4c:	0141                	addi	sp,sp,16
 1002b4e:	8082                	ret
 1002b50:	7159                	addi	sp,sp,-112
 1002b52:	00006597          	auipc	a1,0x6
 1002b56:	2f658593          	addi	a1,a1,758 # 1008e48 <__spl_start+0x7cf0>
 1002b5a:	eca6                	sd	s1,88(sp)
 1002b5c:	f486                	sd	ra,104(sp)
 1002b5e:	f0a2                	sd	s0,96(sp)
 1002b60:	e8ca                	sd	s2,80(sp)
 1002b62:	e4ce                	sd	s3,72(sp)
 1002b64:	e0d2                	sd	s4,64(sp)
 1002b66:	fc56                	sd	s5,56(sp)
 1002b68:	f85a                	sd	s6,48(sp)
 1002b6a:	f45e                	sd	s7,40(sp)
 1002b6c:	84aa                	mv	s1,a0
 1002b6e:	1e7010ef          	jal	ra,1004554 <__spl_start+0x33fc>
 1002b72:	06054d63          	bltz	a0,1002bec <__spl_start+0x1a94>
 1002b76:	01c10a93          	addi	s5,sp,28
 1002b7a:	85aa                	mv	a1,a0
 1002b7c:	86d6                	mv	a3,s5
 1002b7e:	00006617          	auipc	a2,0x6
 1002b82:	2da60613          	addi	a2,a2,730 # 1008e58 <__spl_start+0x7d00>
 1002b86:	e42a                	sd	a0,8(sp)
 1002b88:	8526                	mv	a0,s1
 1002b8a:	0bb010ef          	jal	ra,1004444 <__spl_start+0x32ec>
 1002b8e:	65a2                	ld	a1,8(sp)
 1002b90:	89aa                	mv	s3,a0
 1002b92:	8526                	mv	a0,s1
 1002b94:	348010ef          	jal	ra,1003edc <__spl_start+0x2d84>
 1002b98:	842a                	mv	s0,a0
 1002b9a:	5979                	li	s2,-2
 1002b9c:	00006b17          	auipc	s6,0x6
 1002ba0:	2c4b0b13          	addi	s6,s6,708 # 1008e60 <__spl_start+0x7d08>
 1002ba4:	0000ab97          	auipc	s7,0xa
 1002ba8:	a9cbbb83          	ld	s7,-1380(s7) # 100c640 <__spl_start+0xb4e8>
 1002bac:	00045e63          	bgez	s0,1002bc8 <__spl_start+0x1a70>
 1002bb0:	70a6                	ld	ra,104(sp)
 1002bb2:	7406                	ld	s0,96(sp)
 1002bb4:	64e6                	ld	s1,88(sp)
 1002bb6:	69a6                	ld	s3,72(sp)
 1002bb8:	6a06                	ld	s4,64(sp)
 1002bba:	7ae2                	ld	s5,56(sp)
 1002bbc:	7b42                	ld	s6,48(sp)
 1002bbe:	7ba2                	ld	s7,40(sp)
 1002bc0:	854a                	mv	a0,s2
 1002bc2:	6946                	ld	s2,80(sp)
 1002bc4:	6165                	addi	sp,sp,112
 1002bc6:	8082                	ret
 1002bc8:	86d6                	mv	a3,s5
 1002bca:	865a                	mv	a2,s6
 1002bcc:	85a2                	mv	a1,s0
 1002bce:	8526                	mv	a0,s1
 1002bd0:	075010ef          	jal	ra,1004444 <__spl_start+0x32ec>
 1002bd4:	8a2a                	mv	s4,a0
 1002bd6:	ed09                	bnez	a0,1002bf0 <__spl_start+0x1a98>
 1002bd8:	00006597          	auipc	a1,0x6
 1002bdc:	c3858593          	addi	a1,a1,-968 # 1008810 <__spl_start+0x76b8>
 1002be0:	00006517          	auipc	a0,0x6
 1002be4:	29050513          	addi	a0,a0,656 # 1008e70 <__spl_start+0x7d18>
 1002be8:	2e9020ef          	jal	ra,10056d0 <__spl_start+0x4578>
 1002bec:	5929                	li	s2,-22
 1002bee:	b7c9                	j	1002bb0 <__spl_start+0x1a58>
 1002bf0:	00098d63          	beqz	s3,1002c0a <__spl_start+0x1ab2>
 1002bf4:	85a2                	mv	a1,s0
 1002bf6:	4601                	li	a2,0
 1002bf8:	8526                	mv	a0,s1
 1002bfa:	5f0010ef          	jal	ra,10041ea <__spl_start+0x3092>
 1002bfe:	85aa                	mv	a1,a0
 1002c00:	854e                	mv	a0,s3
 1002c02:	5b2020ef          	jal	ra,10051b4 <__spl_start+0x405c>
 1002c06:	e111                	bnez	a0,1002c0a <__spl_start+0x1ab2>
 1002c08:	8922                	mv	s2,s0
 1002c0a:	8552                	mv	a0,s4
 1002c0c:	9b82                	jalr	s7
 1002c0e:	c519                	beqz	a0,1002c1c <__spl_start+0x1ac4>
 1002c10:	85a2                	mv	a1,s0
 1002c12:	8526                	mv	a0,s1
 1002c14:	2e8010ef          	jal	ra,1003efc <__spl_start+0x2da4>
 1002c18:	842a                	mv	s0,a0
 1002c1a:	bf49                	j	1002bac <__spl_start+0x1a54>
 1002c1c:	8922                	mv	s2,s0
 1002c1e:	bf49                	j	1002bb0 <__spl_start+0x1a58>
 1002c20:	7179                	addi	sp,sp,-48
 1002c22:	ec26                	sd	s1,24(sp)
 1002c24:	e84a                	sd	s2,16(sp)
 1002c26:	e44e                	sd	s3,8(sp)
 1002c28:	f406                	sd	ra,40(sp)
 1002c2a:	f022                	sd	s0,32(sp)
 1002c2c:	892a                	mv	s2,a0
 1002c2e:	89ae                	mv	s3,a1
 1002c30:	84b2                	mv	s1,a2
 1002c32:	6a8010ef          	jal	ra,10042da <__spl_start+0x3182>
 1002c36:	57fd                	li	a5,-1
 1002c38:	00f51763          	bne	a0,a5,1002c46 <__spl_start+0x1aee>
 1002c3c:	8626                	mv	a2,s1
 1002c3e:	85ce                	mv	a1,s3
 1002c40:	854a                	mv	a0,s2
 1002c42:	106020ef          	jal	ra,1004d48 <__spl_start+0x3bf0>
 1002c46:	842a                	mv	s0,a0
 1002c48:	02055063          	bgez	a0,1002c68 <__spl_start+0x1b10>
 1002c4c:	129010ef          	jal	ra,1004574 <__spl_start+0x341c>
 1002c50:	86aa                	mv	a3,a0
 1002c52:	8626                	mv	a2,s1
 1002c54:	00006597          	auipc	a1,0x6
 1002c58:	c3c58593          	addi	a1,a1,-964 # 1008890 <__spl_start+0x7738>
 1002c5c:	00006517          	auipc	a0,0x6
 1002c60:	09c50513          	addi	a0,a0,156 # 1008cf8 <__spl_start+0x7ba0>
 1002c64:	26d020ef          	jal	ra,10056d0 <__spl_start+0x4578>
 1002c68:	70a2                	ld	ra,40(sp)
 1002c6a:	8522                	mv	a0,s0
 1002c6c:	7402                	ld	s0,32(sp)
 1002c6e:	64e2                	ld	s1,24(sp)
 1002c70:	6942                	ld	s2,16(sp)
 1002c72:	69a2                	ld	s3,8(sp)
 1002c74:	6145                	addi	sp,sp,48
 1002c76:	8082                	ret
 1002c78:	7159                	addi	sp,sp,-112
 1002c7a:	eca6                	sd	s1,88(sp)
 1002c7c:	e8ca                	sd	s2,80(sp)
 1002c7e:	e4ce                	sd	s3,72(sp)
 1002c80:	e0d2                	sd	s4,64(sp)
 1002c82:	fc56                	sd	s5,56(sp)
 1002c84:	f85a                	sd	s6,48(sp)
 1002c86:	f45e                	sd	s7,40(sp)
 1002c88:	f486                	sd	ra,104(sp)
 1002c8a:	f0a2                	sd	s0,96(sp)
 1002c8c:	f062                	sd	s8,32(sp)
 1002c8e:	89aa                	mv	s3,a0
 1002c90:	8bb2                	mv	s7,a2
 1002c92:	8b36                	mv	s6,a3
 1002c94:	893a                	mv	s2,a4
 1002c96:	84be                	mv	s1,a5
 1002c98:	8ac2                	mv	s5,a6
 1002c9a:	8a46                	mv	s4,a7
 1002c9c:	7c1000ef          	jal	ra,1003c5c <__spl_start+0x2b04>
 1002ca0:	02055d63          	bgez	a0,1002cda <__spl_start+0x1b82>
 1002ca4:	842a                	mv	s0,a0
 1002ca6:	0cf010ef          	jal	ra,1004574 <__spl_start+0x341c>
 1002caa:	862a                	mv	a2,a0
 1002cac:	00006597          	auipc	a1,0x6
 1002cb0:	bb458593          	addi	a1,a1,-1100 # 1008860 <__spl_start+0x7708>
 1002cb4:	00006517          	auipc	a0,0x6
 1002cb8:	0ac50513          	addi	a0,a0,172 # 1008d60 <__spl_start+0x7c08>
 1002cbc:	215020ef          	jal	ra,10056d0 <__spl_start+0x4578>
 1002cc0:	70a6                	ld	ra,104(sp)
 1002cc2:	8522                	mv	a0,s0
 1002cc4:	7406                	ld	s0,96(sp)
 1002cc6:	64e6                	ld	s1,88(sp)
 1002cc8:	6946                	ld	s2,80(sp)
 1002cca:	69a6                	ld	s3,72(sp)
 1002ccc:	6a06                	ld	s4,64(sp)
 1002cce:	7ae2                	ld	s5,56(sp)
 1002cd0:	7b42                	ld	s6,48(sp)
 1002cd2:	7ba2                	ld	s7,40(sp)
 1002cd4:	7c02                	ld	s8,32(sp)
 1002cd6:	6165                	addi	sp,sp,112
 1002cd8:	8082                	ret
 1002cda:	00006617          	auipc	a2,0x6
 1002cde:	0d660613          	addi	a2,a2,214 # 1008db0 <__spl_start+0x7c58>
 1002ce2:	4581                	li	a1,0
 1002ce4:	854e                	mv	a0,s3
 1002ce6:	f3bff0ef          	jal	ra,1002c20 <__spl_start+0x1ac8>
 1002cea:	842a                	mv	s0,a0
 1002cec:	fc054ae3          	bltz	a0,1002cc0 <__spl_start+0x1b68>
 1002cf0:	85aa                	mv	a1,a0
 1002cf2:	865e                	mv	a2,s7
 1002cf4:	854e                	mv	a0,s3
 1002cf6:	f2bff0ef          	jal	ra,1002c20 <__spl_start+0x1ac8>
 1002cfa:	842a                	mv	s0,a0
 1002cfc:	fc0542e3          	bltz	a0,1002cc0 <__spl_start+0x1b68>
 1002d00:	018b571b          	srliw	a4,s6,0x18
 1002d04:	018b179b          	slliw	a5,s6,0x18
 1002d08:	8fd9                	or	a5,a5,a4
 1002d0a:	00ff0bb7          	lui	s7,0xff0
 1002d0e:	008b171b          	slliw	a4,s6,0x8
 1002d12:	420b5693          	srai	a3,s6,0x20
 1002d16:	01777733          	and	a4,a4,s7
 1002d1a:	0186d61b          	srliw	a2,a3,0x18
 1002d1e:	8fd9                	or	a5,a5,a4
 1002d20:	0186971b          	slliw	a4,a3,0x18
 1002d24:	8f51                	or	a4,a4,a2
 1002d26:	6c41                	lui	s8,0x10
 1002d28:	0086961b          	slliw	a2,a3,0x8
 1002d2c:	f00c0c13          	addi	s8,s8,-256 # ff00 <_start-0xff0100>
 1002d30:	01767633          	and	a2,a2,s7
 1002d34:	0086d69b          	srliw	a3,a3,0x8
 1002d38:	8f51                	or	a4,a4,a2
 1002d3a:	0186f6b3          	and	a3,a3,s8
 1002d3e:	008b5b1b          	srliw	s6,s6,0x8
 1002d42:	8f55                	or	a4,a4,a3
 1002d44:	018b7b33          	and	s6,s6,s8
 1002d48:	0167e7b3          	or	a5,a5,s6
 1002d4c:	1702                	slli	a4,a4,0x20
 1002d4e:	9301                	srli	a4,a4,0x20
 1002d50:	1782                	slli	a5,a5,0x20
 1002d52:	8fd9                	or	a5,a5,a4
 1002d54:	0834                	addi	a3,sp,24
 1002d56:	85aa                	mv	a1,a0
 1002d58:	4721                	li	a4,8
 1002d5a:	00006617          	auipc	a2,0x6
 1002d5e:	06660613          	addi	a2,a2,102 # 1008dc0 <__spl_start+0x7c68>
 1002d62:	854e                	mv	a0,s3
 1002d64:	ec3e                	sd	a5,24(sp)
 1002d66:	e436                	sd	a3,8(sp)
 1002d68:	6d9010ef          	jal	ra,1004c40 <__spl_start+0x3ae8>
 1002d6c:	57fd                	li	a5,-1
 1002d6e:	66a2                	ld	a3,8(sp)
 1002d70:	06f48163          	beq	s1,a5,1002dd2 <__spl_start+0x1c7a>
 1002d74:	0184d71b          	srliw	a4,s1,0x18
 1002d78:	0184979b          	slliw	a5,s1,0x18
 1002d7c:	8fd9                	or	a5,a5,a4
 1002d7e:	0084971b          	slliw	a4,s1,0x8
 1002d82:	4204d613          	srai	a2,s1,0x20
 1002d86:	01777733          	and	a4,a4,s7
 1002d8a:	0186559b          	srliw	a1,a2,0x18
 1002d8e:	8fd9                	or	a5,a5,a4
 1002d90:	0186171b          	slliw	a4,a2,0x18
 1002d94:	8f4d                	or	a4,a4,a1
 1002d96:	0086159b          	slliw	a1,a2,0x8
 1002d9a:	0175f5b3          	and	a1,a1,s7
 1002d9e:	0086561b          	srliw	a2,a2,0x8
 1002da2:	8f4d                	or	a4,a4,a1
 1002da4:	01867633          	and	a2,a2,s8
 1002da8:	0084d49b          	srliw	s1,s1,0x8
 1002dac:	8f51                	or	a4,a4,a2
 1002dae:	0184f4b3          	and	s1,s1,s8
 1002db2:	8fc5                	or	a5,a5,s1
 1002db4:	1702                	slli	a4,a4,0x20
 1002db6:	9301                	srli	a4,a4,0x20
 1002db8:	1782                	slli	a5,a5,0x20
 1002dba:	8fd9                	or	a5,a5,a4
 1002dbc:	00006617          	auipc	a2,0x6
 1002dc0:	00c60613          	addi	a2,a2,12 # 1008dc8 <__spl_start+0x7c70>
 1002dc4:	4721                	li	a4,8
 1002dc6:	85a2                	mv	a1,s0
 1002dc8:	854e                	mv	a0,s3
 1002dca:	ec3e                	sd	a5,24(sp)
 1002dcc:	675010ef          	jal	ra,1004c40 <__spl_start+0x3ae8>
 1002dd0:	66a2                	ld	a3,8(sp)
 1002dd2:	0189571b          	srliw	a4,s2,0x18
 1002dd6:	0189179b          	slliw	a5,s2,0x18
 1002dda:	8fd9                	or	a5,a5,a4
 1002ddc:	00ff0637          	lui	a2,0xff0
 1002de0:	0089171b          	slliw	a4,s2,0x8
 1002de4:	8f71                	and	a4,a4,a2
 1002de6:	8fd9                	or	a5,a5,a4
 1002de8:	6741                	lui	a4,0x10
 1002dea:	f0070713          	addi	a4,a4,-256 # ff00 <_start-0xff0100>
 1002dee:	0089591b          	srliw	s2,s2,0x8
 1002df2:	00e97933          	and	s2,s2,a4
 1002df6:	0127e7b3          	or	a5,a5,s2
 1002dfa:	4711                	li	a4,4
 1002dfc:	00006617          	auipc	a2,0x6
 1002e00:	29460613          	addi	a2,a2,660 # 1009090 <__spl_start+0x7f38>
 1002e04:	85a2                	mv	a1,s0
 1002e06:	854e                	mv	a0,s3
 1002e08:	cc3e                	sw	a5,24(sp)
 1002e0a:	637010ef          	jal	ra,1004c40 <__spl_start+0x3ae8>
 1002e0e:	020a8063          	beqz	s5,1002e2e <__spl_start+0x1cd6>
 1002e12:	8556                	mv	a0,s5
 1002e14:	3d8020ef          	jal	ra,10051ec <__spl_start+0x4094>
 1002e18:	0015071b          	addiw	a4,a0,1
 1002e1c:	86d6                	mv	a3,s5
 1002e1e:	00008617          	auipc	a2,0x8
 1002e22:	8a260613          	addi	a2,a2,-1886 # 100a6c0 <__spl_start+0x9568>
 1002e26:	85a2                	mv	a1,s0
 1002e28:	854e                	mv	a0,s3
 1002e2a:	617010ef          	jal	ra,1004c40 <__spl_start+0x3ae8>
 1002e2e:	e80a09e3          	beqz	s4,1002cc0 <__spl_start+0x1b68>
 1002e32:	8552                	mv	a0,s4
 1002e34:	3b8020ef          	jal	ra,10051ec <__spl_start+0x4094>
 1002e38:	0015071b          	addiw	a4,a0,1
 1002e3c:	86d2                	mv	a3,s4
 1002e3e:	00008617          	auipc	a2,0x8
 1002e42:	88a60613          	addi	a2,a2,-1910 # 100a6c8 <__spl_start+0x9570>
 1002e46:	85a2                	mv	a1,s0
 1002e48:	854e                	mv	a0,s3
 1002e4a:	5f7010ef          	jal	ra,1004c40 <__spl_start+0x3ae8>
 1002e4e:	bd8d                	j	1002cc0 <__spl_start+0x1b68>
 1002e50:	0e050b63          	beqz	a0,1002f46 <__spl_start+0x1dee>
 1002e54:	715d                	addi	sp,sp,-80
 1002e56:	e0a2                	sd	s0,64(sp)
 1002e58:	fc26                	sd	s1,56(sp)
 1002e5a:	f84a                	sd	s2,48(sp)
 1002e5c:	f44e                	sd	s3,40(sp)
 1002e5e:	f052                	sd	s4,32(sp)
 1002e60:	842e                	mv	s0,a1
 1002e62:	e486                	sd	ra,72(sp)
 1002e64:	84aa                	mv	s1,a0
 1002e66:	302010ef          	jal	ra,1004168 <__spl_start+0x3010>
 1002e6a:	892a                	mv	s2,a0
 1002e6c:	4581                	li	a1,0
 1002e6e:	01810993          	addi	s3,sp,24
 1002e72:	01010a13          	addi	s4,sp,16
 1002e76:	0125c463          	blt	a1,s2,1002e7e <__spl_start+0x1d26>
 1002e7a:	4601                	li	a2,0
 1002e7c:	a839                	j	1002e9a <__spl_start+0x1d42>
 1002e7e:	86ce                	mv	a3,s3
 1002e80:	8652                	mv	a2,s4
 1002e82:	8526                	mv	a0,s1
 1002e84:	e42e                	sd	a1,8(sp)
 1002e86:	22c010ef          	jal	ra,10040b2 <__spl_start+0x2f5a>
 1002e8a:	67c2                	ld	a5,16(sp)
 1002e8c:	65a2                	ld	a1,8(sp)
 1002e8e:	0af49063          	bne	s1,a5,1002f2e <__spl_start+0x1dd6>
 1002e92:	8526                	mv	a0,s1
 1002e94:	48f010ef          	jal	ra,1004b22 <__spl_start+0x39ca>
 1002e98:	4605                	li	a2,1
 1002e9a:	44d8                	lw	a4,12(s1)
 1002e9c:	00ff0837          	lui	a6,0xff0
 1002ea0:	509c                	lw	a5,32(s1)
 1002ea2:	0187559b          	srliw	a1,a4,0x18
 1002ea6:	0187169b          	slliw	a3,a4,0x18
 1002eaa:	8ecd                	or	a3,a3,a1
 1002eac:	0087159b          	slliw	a1,a4,0x8
 1002eb0:	0105f5b3          	and	a1,a1,a6
 1002eb4:	8ecd                	or	a3,a3,a1
 1002eb6:	65c1                	lui	a1,0x10
 1002eb8:	f0058593          	addi	a1,a1,-256 # ff00 <_start-0xff0100>
 1002ebc:	0087571b          	srliw	a4,a4,0x8
 1002ec0:	8f6d                	and	a4,a4,a1
 1002ec2:	8f55                	or	a4,a4,a3
 1002ec4:	6685                	lui	a3,0x1
 1002ec6:	04f6869b          	addiw	a3,a3,79
 1002eca:	03449513          	slli	a0,s1,0x34
 1002ece:	9151                	srli	a0,a0,0x34
 1002ed0:	9c35                	addw	s0,s0,a3
 1002ed2:	9c29                	addw	s0,s0,a0
 1002ed4:	0187d69b          	srliw	a3,a5,0x18
 1002ed8:	9c39                	addw	s0,s0,a4
 1002eda:	0187971b          	slliw	a4,a5,0x18
 1002ede:	8f55                	or	a4,a4,a3
 1002ee0:	0087969b          	slliw	a3,a5,0x8
 1002ee4:	0106f6b3          	and	a3,a3,a6
 1002ee8:	0087d79b          	srliw	a5,a5,0x8
 1002eec:	8f55                	or	a4,a4,a3
 1002eee:	8fed                	and	a5,a5,a1
 1002ef0:	8fd9                	or	a5,a5,a4
 1002ef2:	9c3d                	addw	s0,s0,a5
 1002ef4:	77fd                	lui	a5,0xfffff
 1002ef6:	8c7d                	and	s0,s0,a5
 1002ef8:	9c09                	subw	s0,s0,a0
 1002efa:	0184571b          	srliw	a4,s0,0x18
 1002efe:	0184179b          	slliw	a5,s0,0x18
 1002f02:	8fd9                	or	a5,a5,a4
 1002f04:	0084171b          	slliw	a4,s0,0x8
 1002f08:	01077733          	and	a4,a4,a6
 1002f0c:	8fd9                	or	a5,a5,a4
 1002f0e:	0084571b          	srliw	a4,s0,0x8
 1002f12:	8f6d                	and	a4,a4,a1
 1002f14:	8fd9                	or	a5,a5,a4
 1002f16:	c0dc                	sw	a5,4(s1)
 1002f18:	ee09                	bnez	a2,1002f32 <__spl_start+0x1dda>
 1002f1a:	0004051b          	sext.w	a0,s0
 1002f1e:	60a6                	ld	ra,72(sp)
 1002f20:	6406                	ld	s0,64(sp)
 1002f22:	74e2                	ld	s1,56(sp)
 1002f24:	7942                	ld	s2,48(sp)
 1002f26:	79a2                	ld	s3,40(sp)
 1002f28:	7a02                	ld	s4,32(sp)
 1002f2a:	6161                	addi	sp,sp,80
 1002f2c:	8082                	ret
 1002f2e:	2585                	addiw	a1,a1,1
 1002f30:	b799                	j	1002e76 <__spl_start+0x1d1e>
 1002f32:	02041613          	slli	a2,s0,0x20
 1002f36:	9201                	srli	a2,a2,0x20
 1002f38:	85a6                	mv	a1,s1
 1002f3a:	8526                	mv	a0,s1
 1002f3c:	2e1010ef          	jal	ra,1004a1c <__spl_start+0x38c4>
 1002f40:	fc055de3          	bgez	a0,1002f1a <__spl_start+0x1dc2>
 1002f44:	bfe9                	j	1002f1e <__spl_start+0x1dc6>
 1002f46:	4501                	li	a0,0
 1002f48:	8082                	ret
 1002f4a:	4789                	li	a5,2
 1002f4c:	00a7cb63          	blt	a5,a0,1002f62 <__spl_start+0x1e0a>
 1002f50:	050e                	slli	a0,a0,0x3
 1002f52:	00009797          	auipc	a5,0x9
 1002f56:	6be7b783          	ld	a5,1726(a5) # 100c610 <__spl_start+0xb4b8>
 1002f5a:	97aa                	add	a5,a5,a0
 1002f5c:	6388                	ld	a0,0(a5)
 1002f5e:	7d1c                	ld	a5,56(a0)
 1002f60:	8782                	jr	a5
 1002f62:	8082                	ret
 1002f64:	85aa                	mv	a1,a0
 1002f66:	00018d63          	beqz	gp,1002f80 <__spl_start+0x1e28>
 1002f6a:	0381b703          	ld	a4,56(gp)
 1002f6e:	cb09                	beqz	a4,1002f80 <__spl_start+0x1e28>
 1002f70:	0081b783          	ld	a5,8(gp)
 1002f74:	8b89                	andi	a5,a5,2
 1002f76:	c399                	beqz	a5,1002f7c <__spl_start+0x1e24>
 1002f78:	4505                	li	a0,1
 1002f7a:	bfc1                	j	1002f4a <__spl_start+0x1df2>
 1002f7c:	4900406f          	j	100740c <__spl_start+0x62b4>
 1002f80:	8082                	ret
 1002f82:	4789                	li	a5,2
 1002f84:	00a7cb63          	blt	a5,a0,1002f9a <__spl_start+0x1e42>
 1002f88:	050e                	slli	a0,a0,0x3
 1002f8a:	00009797          	auipc	a5,0x9
 1002f8e:	6867b783          	ld	a5,1670(a5) # 100c610 <__spl_start+0xb4b8>
 1002f92:	97aa                	add	a5,a5,a0
 1002f94:	6388                	ld	a0,0(a5)
 1002f96:	613c                	ld	a5,64(a0)
 1002f98:	8782                	jr	a5
 1002f9a:	8082                	ret
 1002f9c:	85aa                	mv	a1,a0
 1002f9e:	00018d63          	beqz	gp,1002fb8 <__spl_start+0x1e60>
 1002fa2:	0381b703          	ld	a4,56(gp)
 1002fa6:	cb09                	beqz	a4,1002fb8 <__spl_start+0x1e60>
 1002fa8:	0081b783          	ld	a5,8(gp)
 1002fac:	8b89                	andi	a5,a5,2
 1002fae:	c399                	beqz	a5,1002fb4 <__spl_start+0x1e5c>
 1002fb0:	4505                	li	a0,1
 1002fb2:	bfc1                	j	1002f82 <__spl_start+0x1e2a>
 1002fb4:	4660406f          	j	100741a <__spl_start+0x62c2>
 1002fb8:	8082                	ret
 1002fba:	1101                	addi	sp,sp,-32
 1002fbc:	e04a                	sd	s2,0(sp)
 1002fbe:	00009917          	auipc	s2,0x9
 1002fc2:	67293903          	ld	s2,1650(s2) # 100c630 <__spl_start+0xb4d8>
 1002fc6:	e426                	sd	s1,8(sp)
 1002fc8:	00093483          	ld	s1,0(s2)
 1002fcc:	e822                	sd	s0,16(sp)
 1002fce:	ec06                	sd	ra,24(sp)
 1002fd0:	00950433          	add	s0,a0,s1
 1002fd4:	00055863          	bgez	a0,1002fe4 <__spl_start+0x1e8c>
 1002fd8:	40a00633          	neg	a2,a0
 1002fdc:	4581                	li	a1,0
 1002fde:	8522                	mv	a0,s0
 1002fe0:	939fe0ef          	jal	ra,1001918 <__spl_start+0x7c0>
 1002fe4:	00009797          	auipc	a5,0x9
 1002fe8:	6047b783          	ld	a5,1540(a5) # 100c5e8 <__spl_start+0xb490>
 1002fec:	639c                	ld	a5,0(a5)
 1002fee:	557d                	li	a0,-1
 1002ff0:	00f46c63          	bltu	s0,a5,1003008 <__spl_start+0x1eb0>
 1002ff4:	00009797          	auipc	a5,0x9
 1002ff8:	59c7b783          	ld	a5,1436(a5) # 100c590 <__spl_start+0xb438>
 1002ffc:	639c                	ld	a5,0(a5)
 1002ffe:	0087e563          	bltu	a5,s0,1003008 <__spl_start+0x1eb0>
 1003002:	00893023          	sd	s0,0(s2)
 1003006:	8526                	mv	a0,s1
 1003008:	60e2                	ld	ra,24(sp)
 100300a:	6442                	ld	s0,16(sp)
 100300c:	64a2                	ld	s1,8(sp)
 100300e:	6902                	ld	s2,0(sp)
 1003010:	6105                	addi	sp,sp,32
 1003012:	8082                	ret
 1003014:	00009717          	auipc	a4,0x9
 1003018:	5d473703          	ld	a4,1492(a4) # 100c5e8 <__spl_start+0xb490>
 100301c:	e308                	sd	a0,0(a4)
 100301e:	00b506b3          	add	a3,a0,a1
 1003022:	00009717          	auipc	a4,0x9
 1003026:	56e73703          	ld	a4,1390(a4) # 100c590 <__spl_start+0xb438>
 100302a:	e314                	sd	a3,0(a4)
 100302c:	862e                	mv	a2,a1
 100302e:	00009717          	auipc	a4,0x9
 1003032:	60273703          	ld	a4,1538(a4) # 100c630 <__spl_start+0xb4d8>
 1003036:	4581                	li	a1,0
 1003038:	e308                	sd	a0,0(a4)
 100303a:	8dffe06f          	j	1001918 <__spl_start+0x7c0>
 100303e:	1101                	addi	sp,sp,-32
 1003040:	e04a                	sd	s2,0(sp)
 1003042:	00009917          	auipc	s2,0x9
 1003046:	8a690913          	addi	s2,s2,-1882 # 100b8e8 <__spl_start+0xa790>
 100304a:	01093783          	ld	a5,16(s2)
 100304e:	e822                	sd	s0,16(sp)
 1003050:	ec06                	sd	ra,24(sp)
 1003052:	e426                	sd	s1,8(sp)
 1003054:	6784                	ld	s1,8(a5)
 1003056:	6705                	lui	a4,0x1
 1003058:	fdf70793          	addi	a5,a4,-33 # fdf <_start-0xfff021>
 100305c:	98f1                	andi	s1,s1,-4
 100305e:	40a78433          	sub	s0,a5,a0
 1003062:	9426                	add	s0,s0,s1
 1003064:	8031                	srli	s0,s0,0xc
 1003066:	147d                	addi	s0,s0,-1
 1003068:	0432                	slli	s0,s0,0xc
 100306a:	00e45963          	bge	s0,a4,100307c <__spl_start+0x1f24>
 100306e:	4501                	li	a0,0
 1003070:	60e2                	ld	ra,24(sp)
 1003072:	6442                	ld	s0,16(sp)
 1003074:	64a2                	ld	s1,8(sp)
 1003076:	6902                	ld	s2,0(sp)
 1003078:	6105                	addi	sp,sp,32
 100307a:	8082                	ret
 100307c:	4501                	li	a0,0
 100307e:	f3dff0ef          	jal	ra,1002fba <__spl_start+0x1e62>
 1003082:	01093783          	ld	a5,16(s2)
 1003086:	97a6                	add	a5,a5,s1
 1003088:	fef513e3          	bne	a0,a5,100306e <__spl_start+0x1f16>
 100308c:	40800533          	neg	a0,s0
 1003090:	f2bff0ef          	jal	ra,1002fba <__spl_start+0x1e62>
 1003094:	57fd                	li	a5,-1
 1003096:	02f51963          	bne	a0,a5,10030c8 <__spl_start+0x1f70>
 100309a:	4501                	li	a0,0
 100309c:	f1fff0ef          	jal	ra,1002fba <__spl_start+0x1e62>
 10030a0:	01093703          	ld	a4,16(s2)
 10030a4:	46fd                	li	a3,31
 10030a6:	40e507b3          	sub	a5,a0,a4
 10030aa:	fcf6d2e3          	bge	a3,a5,100306e <__spl_start+0x1f16>
 10030ae:	00009697          	auipc	a3,0x9
 10030b2:	04a6b683          	ld	a3,74(a3) # 100c0f8 <__spl_start+0xafa0>
 10030b6:	8d15                	sub	a0,a0,a3
 10030b8:	0017e793          	ori	a5,a5,1
 10030bc:	00016697          	auipc	a3,0x16
 10030c0:	0ca6a623          	sw	a0,204(a3) # 1019188 <__spl_src_start+0xbbe0>
 10030c4:	e71c                	sd	a5,8(a4)
 10030c6:	b765                	j	100306e <__spl_start+0x1f16>
 10030c8:	01093783          	ld	a5,16(s2)
 10030cc:	8c81                	sub	s1,s1,s0
 10030ce:	00016717          	auipc	a4,0x16
 10030d2:	0ba70713          	addi	a4,a4,186 # 1019188 <__spl_src_start+0xbbe0>
 10030d6:	0014e493          	ori	s1,s1,1
 10030da:	e784                	sd	s1,8(a5)
 10030dc:	431c                	lw	a5,0(a4)
 10030de:	4505                	li	a0,1
 10030e0:	9f81                	subw	a5,a5,s0
 10030e2:	c31c                	sw	a5,0(a4)
 10030e4:	b771                	j	1003070 <__spl_start+0x1f18>
 10030e6:	0081b783          	ld	a5,8(gp)
 10030ea:	2007f793          	andi	a5,a5,512
 10030ee:	14078763          	beqz	a5,100323c <__spl_start+0x20e4>
 10030f2:	14050563          	beqz	a0,100323c <__spl_start+0x20e4>
 10030f6:	ff853803          	ld	a6,-8(a0)
 10030fa:	ff050693          	addi	a3,a0,-16
 10030fe:	00008617          	auipc	a2,0x8
 1003102:	7ea60613          	addi	a2,a2,2026 # 100b8e8 <__spl_start+0xa790>
 1003106:	ffe87793          	andi	a5,a6,-2
 100310a:	00f685b3          	add	a1,a3,a5
 100310e:	6598                	ld	a4,8(a1)
 1003110:	01063883          	ld	a7,16(a2)
 1003114:	00187813          	andi	a6,a6,1
 1003118:	9b71                	andi	a4,a4,-4
 100311a:	03159c63          	bne	a1,a7,1003152 <__spl_start+0x1ffa>
 100311e:	973e                	add	a4,a4,a5
 1003120:	00081a63          	bnez	a6,1003134 <__spl_start+0x1fdc>
 1003124:	ff053783          	ld	a5,-16(a0)
 1003128:	8e9d                	sub	a3,a3,a5
 100312a:	6a8c                	ld	a1,16(a3)
 100312c:	973e                	add	a4,a4,a5
 100312e:	6e9c                	ld	a5,24(a3)
 1003130:	ed9c                	sd	a5,24(a1)
 1003132:	eb8c                	sd	a1,16(a5)
 1003134:	00176793          	ori	a5,a4,1
 1003138:	e69c                	sd	a5,8(a3)
 100313a:	ea14                	sd	a3,16(a2)
 100313c:	00009797          	auipc	a5,0x9
 1003140:	fc47b783          	ld	a5,-60(a5) # 100c100 <__spl_start+0xafa8>
 1003144:	0ef76c63          	bltu	a4,a5,100323c <__spl_start+0x20e4>
 1003148:	00016517          	auipc	a0,0x16
 100314c:	09053503          	ld	a0,144(a0) # 10191d8 <__spl_src_start+0xbc30>
 1003150:	b5fd                	j	100303e <__spl_start+0x1ee6>
 1003152:	e598                	sd	a4,8(a1)
 1003154:	4881                	li	a7,0
 1003156:	02081363          	bnez	a6,100317c <__spl_start+0x2024>
 100315a:	ff053503          	ld	a0,-16(a0)
 100315e:	00008817          	auipc	a6,0x8
 1003162:	79a80813          	addi	a6,a6,1946 # 100b8f8 <__spl_start+0xa7a0>
 1003166:	8e89                	sub	a3,a3,a0
 1003168:	97aa                	add	a5,a5,a0
 100316a:	6a88                	ld	a0,16(a3)
 100316c:	09050063          	beq	a0,a6,10031ec <__spl_start+0x2094>
 1003170:	0186b803          	ld	a6,24(a3)
 1003174:	01053c23          	sd	a6,24(a0)
 1003178:	00a83823          	sd	a0,16(a6)
 100317c:	00e58533          	add	a0,a1,a4
 1003180:	6508                	ld	a0,8(a0)
 1003182:	8905                	andi	a0,a0,1
 1003184:	e105                	bnez	a0,10031a4 <__spl_start+0x204c>
 1003186:	97ba                	add	a5,a5,a4
 1003188:	6998                	ld	a4,16(a1)
 100318a:	06089363          	bnez	a7,10031f0 <__spl_start+0x2098>
 100318e:	00008517          	auipc	a0,0x8
 1003192:	76a50513          	addi	a0,a0,1898 # 100b8f8 <__spl_start+0xa7a0>
 1003196:	04a71d63          	bne	a4,a0,10031f0 <__spl_start+0x2098>
 100319a:	f614                	sd	a3,40(a2)
 100319c:	f214                	sd	a3,32(a2)
 100319e:	ee98                	sd	a4,24(a3)
 10031a0:	ea98                	sd	a4,16(a3)
 10031a2:	4885                	li	a7,1
 10031a4:	0017e713          	ori	a4,a5,1
 10031a8:	e698                	sd	a4,8(a3)
 10031aa:	00f68733          	add	a4,a3,a5
 10031ae:	e31c                	sd	a5,0(a4)
 10031b0:	08089663          	bnez	a7,100323c <__spl_start+0x20e4>
 10031b4:	1ff00713          	li	a4,511
 10031b8:	04f76063          	bltu	a4,a5,10031f8 <__spl_start+0x20a0>
 10031bc:	838d                	srli	a5,a5,0x3
 10031be:	4027d59b          	sraiw	a1,a5,0x2
 10031c2:	4705                	li	a4,1
 10031c4:	00b7173b          	sllw	a4,a4,a1
 10031c8:	660c                	ld	a1,8(a2)
 10031ca:	1702                	slli	a4,a4,0x20
 10031cc:	2785                	addiw	a5,a5,1
 10031ce:	9301                	srli	a4,a4,0x20
 10031d0:	0017979b          	slliw	a5,a5,0x1
 10031d4:	8f4d                	or	a4,a4,a1
 10031d6:	078e                	slli	a5,a5,0x3
 10031d8:	e618                	sd	a4,8(a2)
 10031da:	97b2                	add	a5,a5,a2
 10031dc:	6398                	ld	a4,0(a5)
 10031de:	ff078613          	addi	a2,a5,-16
 10031e2:	ee90                	sd	a2,24(a3)
 10031e4:	ea98                	sd	a4,16(a3)
 10031e6:	e394                	sd	a3,0(a5)
 10031e8:	ef14                	sd	a3,24(a4)
 10031ea:	8082                	ret
 10031ec:	4885                	li	a7,1
 10031ee:	b779                	j	100317c <__spl_start+0x2024>
 10031f0:	6d8c                	ld	a1,24(a1)
 10031f2:	ef0c                	sd	a1,24(a4)
 10031f4:	e998                	sd	a4,16(a1)
 10031f6:	b77d                	j	10031a4 <__spl_start+0x204c>
 10031f8:	0097d593          	srli	a1,a5,0x9
 10031fc:	4711                	li	a4,4
 10031fe:	04b76063          	bltu	a4,a1,100323e <__spl_start+0x20e6>
 1003202:	0067d713          	srli	a4,a5,0x6
 1003206:	0387071b          	addiw	a4,a4,56
 100320a:	0017059b          	addiw	a1,a4,1
 100320e:	0015959b          	slliw	a1,a1,0x1
 1003212:	058e                	slli	a1,a1,0x3
 1003214:	95b2                	add	a1,a1,a2
 1003216:	ff058513          	addi	a0,a1,-16
 100321a:	618c                	ld	a1,0(a1)
 100321c:	06b51763          	bne	a0,a1,100328a <__spl_start+0x2132>
 1003220:	4027571b          	sraiw	a4,a4,0x2
 1003224:	4785                	li	a5,1
 1003226:	00e797bb          	sllw	a5,a5,a4
 100322a:	6618                	ld	a4,8(a2)
 100322c:	1782                	slli	a5,a5,0x20
 100322e:	9381                	srli	a5,a5,0x20
 1003230:	8fd9                	or	a5,a5,a4
 1003232:	e61c                	sd	a5,8(a2)
 1003234:	ee88                	sd	a0,24(a3)
 1003236:	ea8c                	sd	a1,16(a3)
 1003238:	e914                	sd	a3,16(a0)
 100323a:	ed94                	sd	a3,24(a1)
 100323c:	8082                	ret
 100323e:	4751                	li	a4,20
 1003240:	00b76563          	bltu	a4,a1,100324a <__spl_start+0x20f2>
 1003244:	05b5871b          	addiw	a4,a1,91
 1003248:	b7c9                	j	100320a <__spl_start+0x20b2>
 100324a:	05400713          	li	a4,84
 100324e:	00b76763          	bltu	a4,a1,100325c <__spl_start+0x2104>
 1003252:	00c7d713          	srli	a4,a5,0xc
 1003256:	06e7071b          	addiw	a4,a4,110
 100325a:	bf45                	j	100320a <__spl_start+0x20b2>
 100325c:	15400713          	li	a4,340
 1003260:	00b76763          	bltu	a4,a1,100326e <__spl_start+0x2116>
 1003264:	00f7d713          	srli	a4,a5,0xf
 1003268:	0777071b          	addiw	a4,a4,119
 100326c:	bf79                	j	100320a <__spl_start+0x20b2>
 100326e:	55400513          	li	a0,1364
 1003272:	07e00713          	li	a4,126
 1003276:	f8b56ae3          	bltu	a0,a1,100320a <__spl_start+0x20b2>
 100327a:	0127d713          	srli	a4,a5,0x12
 100327e:	07c7071b          	addiw	a4,a4,124
 1003282:	b761                	j	100320a <__spl_start+0x20b2>
 1003284:	698c                	ld	a1,16(a1)
 1003286:	00b50663          	beq	a0,a1,1003292 <__spl_start+0x213a>
 100328a:	6598                	ld	a4,8(a1)
 100328c:	9b71                	andi	a4,a4,-4
 100328e:	fee7ebe3          	bltu	a5,a4,1003284 <__spl_start+0x212c>
 1003292:	6d88                	ld	a0,24(a1)
 1003294:	b745                	j	1003234 <__spl_start+0x20dc>
 1003296:	0081b703          	ld	a4,8(gp)
 100329a:	20077713          	andi	a4,a4,512
 100329e:	e311                	bnez	a4,10032a2 <__spl_start+0x214a>
 10032a0:	a71d                	j	10039c6 <__spl_start+0x286e>
 10032a2:	00009717          	auipc	a4,0x9
 10032a6:	34673703          	ld	a4,838(a4) # 100c5e8 <__spl_start+0xb490>
 10032aa:	00009697          	auipc	a3,0x9
 10032ae:	2e66b683          	ld	a3,742(a3) # 100c590 <__spl_start+0xb438>
 10032b2:	6318                	ld	a4,0(a4)
 10032b4:	6294                	ld	a3,0(a3)
 10032b6:	8f55                	or	a4,a4,a3
 10032b8:	e319                	bnez	a4,10032be <__spl_start+0x2166>
 10032ba:	4501                	li	a0,0
 10032bc:	8082                	ret
 10032be:	fe054ee3          	bltz	a0,10032ba <__spl_start+0x2162>
 10032c2:	715d                	addi	sp,sp,-80
 10032c4:	f84a                	sd	s2,48(sp)
 10032c6:	e486                	sd	ra,72(sp)
 10032c8:	e0a2                	sd	s0,64(sp)
 10032ca:	fc26                	sd	s1,56(sp)
 10032cc:	f44e                	sd	s3,40(sp)
 10032ce:	f052                	sd	s4,32(sp)
 10032d0:	ec56                	sd	s5,24(sp)
 10032d2:	e85a                	sd	s6,16(sp)
 10032d4:	e45e                	sd	s7,8(sp)
 10032d6:	e062                	sd	s8,0(sp)
 10032d8:	01750793          	addi	a5,a0,23
 10032dc:	02e00713          	li	a4,46
 10032e0:	00008917          	auipc	s2,0x8
 10032e4:	60890913          	addi	s2,s2,1544 # 100b8e8 <__spl_start+0xa790>
 10032e8:	04f75663          	bge	a4,a5,1003334 <__spl_start+0x21dc>
 10032ec:	ff07f493          	andi	s1,a5,-16
 10032f0:	1f700793          	li	a5,503
 10032f4:	0497e363          	bltu	a5,s1,100333a <__spl_start+0x21e2>
 10032f8:	0034d713          	srli	a4,s1,0x3
 10032fc:	0007079b          	sext.w	a5,a4
 1003300:	2705                	addiw	a4,a4,1
 1003302:	0017171b          	slliw	a4,a4,0x1
 1003306:	070e                	slli	a4,a4,0x3
 1003308:	974a                	add	a4,a4,s2
 100330a:	6708                	ld	a0,8(a4)
 100330c:	ff070693          	addi	a3,a4,-16
 1003310:	00d51663          	bne	a0,a3,100331c <__spl_start+0x21c4>
 1003314:	6f08                	ld	a0,24(a4)
 1003316:	2789                	addiw	a5,a5,2
 1003318:	06a70163          	beq	a4,a0,100337a <__spl_start+0x2222>
 100331c:	651c                	ld	a5,8(a0)
 100331e:	6d18                	ld	a4,24(a0)
 1003320:	6914                	ld	a3,16(a0)
 1003322:	9bf1                	andi	a5,a5,-4
 1003324:	97aa                	add	a5,a5,a0
 1003326:	ee98                	sd	a4,24(a3)
 1003328:	eb14                	sd	a3,16(a4)
 100332a:	6798                	ld	a4,8(a5)
 100332c:	00176713          	ori	a4,a4,1
 1003330:	e798                	sd	a4,8(a5)
 1003332:	a059                	j	10033b8 <__spl_start+0x2260>
 1003334:	02000493          	li	s1,32
 1003338:	b7c1                	j	10032f8 <__spl_start+0x21a0>
 100333a:	0094d713          	srli	a4,s1,0x9
 100333e:	03f00793          	li	a5,63
 1003342:	cb01                	beqz	a4,1003352 <__spl_start+0x21fa>
 1003344:	4791                	li	a5,4
 1003346:	08e7e663          	bltu	a5,a4,10033d2 <__spl_start+0x227a>
 100334a:	0064d793          	srli	a5,s1,0x6
 100334e:	0387879b          	addiw	a5,a5,56
 1003352:	0017871b          	addiw	a4,a5,1
 1003356:	0017171b          	slliw	a4,a4,0x1
 100335a:	070e                	slli	a4,a4,0x3
 100335c:	974a                	add	a4,a4,s2
 100335e:	6708                	ld	a0,8(a4)
 1003360:	ff070593          	addi	a1,a4,-16
 1003364:	487d                	li	a6,31
 1003366:	00a58963          	beq	a1,a0,1003378 <__spl_start+0x2220>
 100336a:	6518                	ld	a4,8(a0)
 100336c:	9b71                	andi	a4,a4,-4
 100336e:	40970633          	sub	a2,a4,s1
 1003372:	0ac85363          	bge	a6,a2,1003418 <__spl_start+0x22c0>
 1003376:	37fd                	addiw	a5,a5,-1
 1003378:	2785                	addiw	a5,a5,1
 100337a:	02093503          	ld	a0,32(s2)
 100337e:	00008597          	auipc	a1,0x8
 1003382:	57a58593          	addi	a1,a1,1402 # 100b8f8 <__spl_start+0xa7a0>
 1003386:	0eb50e63          	beq	a0,a1,1003482 <__spl_start+0x232a>
 100338a:	6518                	ld	a4,8(a0)
 100338c:	46fd                	li	a3,31
 100338e:	9b71                	andi	a4,a4,-4
 1003390:	40970633          	sub	a2,a4,s1
 1003394:	08c6dd63          	bge	a3,a2,100342e <__spl_start+0x22d6>
 1003398:	0014e793          	ori	a5,s1,1
 100339c:	e51c                	sd	a5,8(a0)
 100339e:	009506b3          	add	a3,a0,s1
 10033a2:	02d93423          	sd	a3,40(s2)
 10033a6:	02d93023          	sd	a3,32(s2)
 10033aa:	00166793          	ori	a5,a2,1
 10033ae:	ee8c                	sd	a1,24(a3)
 10033b0:	ea8c                	sd	a1,16(a3)
 10033b2:	e69c                	sd	a5,8(a3)
 10033b4:	972a                	add	a4,a4,a0
 10033b6:	e310                	sd	a2,0(a4)
 10033b8:	0541                	addi	a0,a0,16
 10033ba:	60a6                	ld	ra,72(sp)
 10033bc:	6406                	ld	s0,64(sp)
 10033be:	74e2                	ld	s1,56(sp)
 10033c0:	7942                	ld	s2,48(sp)
 10033c2:	79a2                	ld	s3,40(sp)
 10033c4:	7a02                	ld	s4,32(sp)
 10033c6:	6ae2                	ld	s5,24(sp)
 10033c8:	6b42                	ld	s6,16(sp)
 10033ca:	6ba2                	ld	s7,8(sp)
 10033cc:	6c02                	ld	s8,0(sp)
 10033ce:	6161                	addi	sp,sp,80
 10033d0:	8082                	ret
 10033d2:	47d1                	li	a5,20
 10033d4:	00e7e563          	bltu	a5,a4,10033de <__spl_start+0x2286>
 10033d8:	05b7079b          	addiw	a5,a4,91
 10033dc:	bf9d                	j	1003352 <__spl_start+0x21fa>
 10033de:	05400793          	li	a5,84
 10033e2:	00e7e763          	bltu	a5,a4,10033f0 <__spl_start+0x2298>
 10033e6:	00c4d793          	srli	a5,s1,0xc
 10033ea:	06e7879b          	addiw	a5,a5,110
 10033ee:	b795                	j	1003352 <__spl_start+0x21fa>
 10033f0:	15400793          	li	a5,340
 10033f4:	00e7e763          	bltu	a5,a4,1003402 <__spl_start+0x22aa>
 10033f8:	00f4d793          	srli	a5,s1,0xf
 10033fc:	0777879b          	addiw	a5,a5,119
 1003400:	bf89                	j	1003352 <__spl_start+0x21fa>
 1003402:	55400693          	li	a3,1364
 1003406:	07e00793          	li	a5,126
 100340a:	f4e6e4e3          	bltu	a3,a4,1003352 <__spl_start+0x21fa>
 100340e:	0124d793          	srli	a5,s1,0x12
 1003412:	07c7879b          	addiw	a5,a5,124
 1003416:	bf35                	j	1003352 <__spl_start+0x21fa>
 1003418:	6d14                	ld	a3,24(a0)
 100341a:	00064863          	bltz	a2,100342a <__spl_start+0x22d2>
 100341e:	691c                	ld	a5,16(a0)
 1003420:	ef94                	sd	a3,24(a5)
 1003422:	ea9c                	sd	a5,16(a3)
 1003424:	00e507b3          	add	a5,a0,a4
 1003428:	b709                	j	100332a <__spl_start+0x21d2>
 100342a:	8536                	mv	a0,a3
 100342c:	bf2d                	j	1003366 <__spl_start+0x220e>
 100342e:	02b93423          	sd	a1,40(s2)
 1003432:	02b93023          	sd	a1,32(s2)
 1003436:	00064863          	bltz	a2,1003446 <__spl_start+0x22ee>
 100343a:	972a                	add	a4,a4,a0
 100343c:	671c                	ld	a5,8(a4)
 100343e:	0017e793          	ori	a5,a5,1
 1003442:	e71c                	sd	a5,8(a4)
 1003444:	bf95                	j	10033b8 <__spl_start+0x2260>
 1003446:	1ff00693          	li	a3,511
 100344a:	00893883          	ld	a7,8(s2)
 100344e:	14e6e163          	bltu	a3,a4,1003590 <__spl_start+0x2438>
 1003452:	830d                	srli	a4,a4,0x3
 1003454:	4027561b          	sraiw	a2,a4,0x2
 1003458:	4685                	li	a3,1
 100345a:	00c696bb          	sllw	a3,a3,a2
 100345e:	1682                	slli	a3,a3,0x20
 1003460:	2705                	addiw	a4,a4,1
 1003462:	9281                	srli	a3,a3,0x20
 1003464:	0017171b          	slliw	a4,a4,0x1
 1003468:	00d8e6b3          	or	a3,a7,a3
 100346c:	070e                	slli	a4,a4,0x3
 100346e:	974a                	add	a4,a4,s2
 1003470:	00d93423          	sd	a3,8(s2)
 1003474:	6314                	ld	a3,0(a4)
 1003476:	ff070613          	addi	a2,a4,-16
 100347a:	ed10                	sd	a2,24(a0)
 100347c:	e914                	sd	a3,16(a0)
 100347e:	e308                	sd	a0,0(a4)
 1003480:	ee88                	sd	a0,24(a3)
 1003482:	4027d69b          	sraiw	a3,a5,0x2
 1003486:	4705                	li	a4,1
 1003488:	00d7173b          	sllw	a4,a4,a3
 100348c:	02071313          	slli	t1,a4,0x20
 1003490:	00893703          	ld	a4,8(s2)
 1003494:	02035313          	srli	t1,t1,0x20
 1003498:	06676063          	bltu	a4,t1,10034f8 <__spl_start+0x23a0>
 100349c:	00e376b3          	and	a3,t1,a4
 10034a0:	e699                	bnez	a3,10034ae <__spl_start+0x2356>
 10034a2:	9bf1                	andi	a5,a5,-4
 10034a4:	0306                	slli	t1,t1,0x1
 10034a6:	006776b3          	and	a3,a4,t1
 10034aa:	2791                	addiw	a5,a5,4
 10034ac:	dee5                	beqz	a3,10034a4 <__spl_start+0x234c>
 10034ae:	4e7d                	li	t3,31
 10034b0:	0017871b          	addiw	a4,a5,1
 10034b4:	0017171b          	slliw	a4,a4,0x1
 10034b8:	070e                	slli	a4,a4,0x3
 10034ba:	1741                	addi	a4,a4,-16
 10034bc:	974a                	add	a4,a4,s2
 10034be:	883a                	mv	a6,a4
 10034c0:	863e                	mv	a2,a5
 10034c2:	01883503          	ld	a0,24(a6)
 10034c6:	16a81863          	bne	a6,a0,1003636 <__spl_start+0x24de>
 10034ca:	2605                	addiw	a2,a2,1
 10034cc:	00367693          	andi	a3,a2,3
 10034d0:	0841                	addi	a6,a6,16
 10034d2:	fae5                	bnez	a3,10034c2 <__spl_start+0x236a>
 10034d4:	0037f693          	andi	a3,a5,3
 10034d8:	1a069963          	bnez	a3,100368a <__spl_start+0x2532>
 10034dc:	00893783          	ld	a5,8(s2)
 10034e0:	fff34713          	not	a4,t1
 10034e4:	8ff9                	and	a5,a5,a4
 10034e6:	00f93423          	sd	a5,8(s2)
 10034ea:	00893683          	ld	a3,8(s2)
 10034ee:	0306                	slli	t1,t1,0x1
 10034f0:	0066e463          	bltu	a3,t1,10034f8 <__spl_start+0x23a0>
 10034f4:	1a031763          	bnez	t1,10036a2 <__spl_start+0x254a>
 10034f8:	01093a83          	ld	s5,16(s2)
 10034fc:	47fd                	li	a5,31
 10034fe:	008aba03          	ld	s4,8(s5)
 1003502:	ffca7a13          	andi	s4,s4,-4
 1003506:	409a0733          	sub	a4,s4,s1
 100350a:	22e7c063          	blt	a5,a4,100372a <__spl_start+0x25d2>
 100350e:	00009c17          	auipc	s8,0x9
 1003512:	beac0c13          	addi	s8,s8,-1046 # 100c0f8 <__spl_start+0xafa0>
 1003516:	000c3703          	ld	a4,0(s8)
 100351a:	00016417          	auipc	s0,0x16
 100351e:	cbe43403          	ld	s0,-834(s0) # 10191d8 <__spl_src_start+0xbc30>
 1003522:	57fd                	li	a5,-1
 1003524:	014a8b33          	add	s6,s5,s4
 1003528:	9426                	add	s0,s0,s1
 100352a:	16f71e63          	bne	a4,a5,10036a6 <__spl_start+0x254e>
 100352e:	02040413          	addi	s0,s0,32
 1003532:	8522                	mv	a0,s0
 1003534:	a87ff0ef          	jal	ra,1002fba <__spl_start+0x1e62>
 1003538:	57fd                	li	a5,-1
 100353a:	89aa                	mv	s3,a0
 100353c:	1cf50e63          	beq	a0,a5,1003718 <__spl_start+0x25c0>
 1003540:	01657463          	bgeu	a0,s6,1003548 <__spl_start+0x23f0>
 1003544:	1d2a9a63          	bne	s5,s2,1003718 <__spl_start+0x25c0>
 1003548:	00016b97          	auipc	s7,0x16
 100354c:	c40b8b93          	addi	s7,s7,-960 # 1019188 <__spl_src_start+0xbbe0>
 1003550:	000ba783          	lw	a5,0(s7)
 1003554:	9fa1                	addw	a5,a5,s0
 1003556:	00fba023          	sw	a5,0(s7)
 100355a:	153b1c63          	bne	s6,s3,10036b2 <__spl_start+0x255a>
 100355e:	01093783          	ld	a5,16(s2)
 1003562:	9452                	add	s0,s0,s4
 1003564:	00146413          	ori	s0,s0,1
 1003568:	e780                	sd	s0,8(a5)
 100356a:	00016717          	auipc	a4,0x16
 100356e:	c4670713          	addi	a4,a4,-954 # 10191b0 <__spl_src_start+0xbc08>
 1003572:	000ba783          	lw	a5,0(s7)
 1003576:	6314                	ld	a3,0(a4)
 1003578:	00f6f363          	bgeu	a3,a5,100357e <__spl_start+0x2426>
 100357c:	e31c                	sd	a5,0(a4)
 100357e:	00016717          	auipc	a4,0x16
 1003582:	c3a70713          	addi	a4,a4,-966 # 10191b8 <__spl_src_start+0xbc10>
 1003586:	6314                	ld	a3,0(a4)
 1003588:	18f6f863          	bgeu	a3,a5,1003718 <__spl_start+0x25c0>
 100358c:	e31c                	sd	a5,0(a4)
 100358e:	a269                	j	1003718 <__spl_start+0x25c0>
 1003590:	00975613          	srli	a2,a4,0x9
 1003594:	4691                	li	a3,4
 1003596:	04c6e363          	bltu	a3,a2,10035dc <__spl_start+0x2484>
 100359a:	00675693          	srli	a3,a4,0x6
 100359e:	0386869b          	addiw	a3,a3,56
 10035a2:	0016861b          	addiw	a2,a3,1
 10035a6:	0016161b          	slliw	a2,a2,0x1
 10035aa:	060e                	slli	a2,a2,0x3
 10035ac:	964a                	add	a2,a2,s2
 10035ae:	ff060813          	addi	a6,a2,-16
 10035b2:	6210                	ld	a2,0(a2)
 10035b4:	06c81a63          	bne	a6,a2,1003628 <__spl_start+0x24d0>
 10035b8:	4026d69b          	sraiw	a3,a3,0x2
 10035bc:	4705                	li	a4,1
 10035be:	00d7173b          	sllw	a4,a4,a3
 10035c2:	1702                	slli	a4,a4,0x20
 10035c4:	9301                	srli	a4,a4,0x20
 10035c6:	00e8e733          	or	a4,a7,a4
 10035ca:	00e93423          	sd	a4,8(s2)
 10035ce:	01053c23          	sd	a6,24(a0)
 10035d2:	e910                	sd	a2,16(a0)
 10035d4:	00a83823          	sd	a0,16(a6)
 10035d8:	ee08                	sd	a0,24(a2)
 10035da:	b565                	j	1003482 <__spl_start+0x232a>
 10035dc:	46d1                	li	a3,20
 10035de:	00c6e563          	bltu	a3,a2,10035e8 <__spl_start+0x2490>
 10035e2:	05b6069b          	addiw	a3,a2,91
 10035e6:	bf75                	j	10035a2 <__spl_start+0x244a>
 10035e8:	05400693          	li	a3,84
 10035ec:	00c6e763          	bltu	a3,a2,10035fa <__spl_start+0x24a2>
 10035f0:	00c75693          	srli	a3,a4,0xc
 10035f4:	06e6869b          	addiw	a3,a3,110
 10035f8:	b76d                	j	10035a2 <__spl_start+0x244a>
 10035fa:	15400693          	li	a3,340
 10035fe:	00c6e763          	bltu	a3,a2,100360c <__spl_start+0x24b4>
 1003602:	00f75693          	srli	a3,a4,0xf
 1003606:	0776869b          	addiw	a3,a3,119
 100360a:	bf61                	j	10035a2 <__spl_start+0x244a>
 100360c:	55400813          	li	a6,1364
 1003610:	07e00693          	li	a3,126
 1003614:	f8c867e3          	bltu	a6,a2,10035a2 <__spl_start+0x244a>
 1003618:	01275693          	srli	a3,a4,0x12
 100361c:	07c6869b          	addiw	a3,a3,124
 1003620:	b749                	j	10035a2 <__spl_start+0x244a>
 1003622:	6a10                	ld	a2,16(a2)
 1003624:	00c80663          	beq	a6,a2,1003630 <__spl_start+0x24d8>
 1003628:	6614                	ld	a3,8(a2)
 100362a:	9af1                	andi	a3,a3,-4
 100362c:	fed76be3          	bltu	a4,a3,1003622 <__spl_start+0x24ca>
 1003630:	01863803          	ld	a6,24(a2)
 1003634:	bf69                	j	10035ce <__spl_start+0x2476>
 1003636:	6514                	ld	a3,8(a0)
 1003638:	9af1                	andi	a3,a3,-4
 100363a:	409688b3          	sub	a7,a3,s1
 100363e:	031e5863          	bge	t3,a7,100366e <__spl_start+0x2516>
 1003642:	0014e793          	ori	a5,s1,1
 1003646:	e51c                	sd	a5,8(a0)
 1003648:	6910                	ld	a2,16(a0)
 100364a:	6d1c                	ld	a5,24(a0)
 100364c:	00950733          	add	a4,a0,s1
 1003650:	96aa                	add	a3,a3,a0
 1003652:	ee1c                	sd	a5,24(a2)
 1003654:	eb90                	sd	a2,16(a5)
 1003656:	02e93423          	sd	a4,40(s2)
 100365a:	02e93023          	sd	a4,32(s2)
 100365e:	0018e793          	ori	a5,a7,1
 1003662:	ef0c                	sd	a1,24(a4)
 1003664:	eb0c                	sd	a1,16(a4)
 1003666:	e71c                	sd	a5,8(a4)
 1003668:	0116b023          	sd	a7,0(a3)
 100366c:	b3b1                	j	10033b8 <__spl_start+0x2260>
 100366e:	0008cc63          	bltz	a7,1003686 <__spl_start+0x252e>
 1003672:	96aa                	add	a3,a3,a0
 1003674:	669c                	ld	a5,8(a3)
 1003676:	0017e793          	ori	a5,a5,1
 100367a:	e69c                	sd	a5,8(a3)
 100367c:	6d1c                	ld	a5,24(a0)
 100367e:	6918                	ld	a4,16(a0)
 1003680:	ef1c                	sd	a5,24(a4)
 1003682:	eb98                	sd	a4,16(a5)
 1003684:	bb15                	j	10033b8 <__spl_start+0x2260>
 1003686:	6d08                	ld	a0,24(a0)
 1003688:	bd3d                	j	10034c6 <__spl_start+0x236e>
 100368a:	6314                	ld	a3,0(a4)
 100368c:	1741                	addi	a4,a4,-16
 100368e:	37fd                	addiw	a5,a5,-1
 1003690:	e4d702e3          	beq	a4,a3,10034d4 <__spl_start+0x237c>
 1003694:	bd99                	j	10034ea <__spl_start+0x2392>
 1003696:	2791                	addiw	a5,a5,4
 1003698:	0306                	slli	t1,t1,0x1
 100369a:	0066f733          	and	a4,a3,t1
 100369e:	df65                	beqz	a4,1003696 <__spl_start+0x253e>
 10036a0:	bd01                	j	10034b0 <__spl_start+0x2358>
 10036a2:	87b2                	mv	a5,a2
 10036a4:	bfdd                	j	100369a <__spl_start+0x2542>
 10036a6:	6785                	lui	a5,0x1
 10036a8:	07fd                	addi	a5,a5,31
 10036aa:	943e                	add	s0,s0,a5
 10036ac:	77fd                	lui	a5,0xfffff
 10036ae:	8c7d                	and	s0,s0,a5
 10036b0:	b549                	j	1003532 <__spl_start+0x23da>
 10036b2:	000c3683          	ld	a3,0(s8)
 10036b6:	577d                	li	a4,-1
 10036b8:	08e69363          	bne	a3,a4,100373e <__spl_start+0x25e6>
 10036bc:	013c3023          	sd	s3,0(s8)
 10036c0:	00f9f793          	andi	a5,s3,15
 10036c4:	c789                	beqz	a5,10036ce <__spl_start+0x2576>
 10036c6:	4741                	li	a4,16
 10036c8:	40f707b3          	sub	a5,a4,a5
 10036cc:	99be                	add	s3,s3,a5
 10036ce:	6705                	lui	a4,0x1
 10036d0:	944e                	add	s0,s0,s3
 10036d2:	177d                	addi	a4,a4,-1
