
bootrom.elf:     file format elf64-littleriscv


Disassembly of section .text:

0000000001000000 <_start>:
 1000000:	0210011b          	addiw	sp,zero,33
 1000004:	01a11113          	slli	sp,sp,0x1a
 1000008:	00000297          	auipc	t0,0x0
 100000c:	01828293          	addi	t0,t0,24 # 1000020 <exception>
 1000010:	30529073          	csrw	mtvec,t0
 1000014:	00001297          	auipc	t0,0x1
 1000018:	d002e283          	lwu	t0,-768(t0) # 1000d14 <main>
 100001c:	4f9000ef          	jal	ra,1000d14 <main>

0000000001000020 <exception>:
 1000020:	10500073          	wfi
 1000024:	ffdff06f          	j	1000020 <exception>

0000000001000028 <entry_addr>:
 1000028:	0020                	addi	s0,sp,8
 100002a:	0100                	addi	s0,sp,128
 100002c:	00000013          	nop

0000000001000030 <device_tree>:
 1000030:	0dd0                	addi	a2,sp,724
 1000032:	edfe                	sd	t6,216(sp)
 1000034:	0000                	unimp
 1000036:	0000130b          	0x130b
 100003a:	3800                	fld	fs0,48(s0)
 100003c:	0000                	unimp
 100003e:	1409                	addi	s0,s0,-30
 1000040:	0000                	unimp
 1000042:	2800                	fld	fs0,16(s0)
 1000044:	0000                	unimp
 1000046:	1100                	addi	s0,sp,160
 1000048:	0000                	unimp
 100004a:	1000                	addi	s0,sp,32
 100004c:	0000                	unimp
 100004e:	0000                	unimp
 1000050:	0000                	unimp
 1000052:	ff01                	bnez	a4,ffff6a <_start-0x96>
 1000054:	0000                	unimp
 1000056:	dc08                	sw	a0,56(s0)
	...
 1000068:	0000                	unimp
 100006a:	0100                	addi	s0,sp,128
 100006c:	0000                	unimp
 100006e:	0000                	unimp
 1000070:	0000                	unimp
 1000072:	0300                	addi	s0,sp,384
 1000074:	0000                	unimp
 1000076:	0400                	addi	s0,sp,512
 1000078:	0000                	unimp
 100007a:	0000                	unimp
 100007c:	0000                	unimp
 100007e:	0200                	addi	s0,sp,256
 1000080:	0000                	unimp
 1000082:	0300                	addi	s0,sp,384
 1000084:	0000                	unimp
 1000086:	0400                	addi	s0,sp,512
 1000088:	0000                	unimp
 100008a:	0f00                	addi	s0,sp,912
 100008c:	0000                	unimp
 100008e:	0200                	addi	s0,sp,256
 1000090:	0000                	unimp
 1000092:	0300                	addi	s0,sp,384
 1000094:	0000                	unimp
 1000096:	0f00                	addi	s0,sp,912
 1000098:	0000                	unimp
 100009a:	1b00                	addi	s0,sp,432
 100009c:	7465                	lui	s0,0xffff9
 100009e:	2c68                	fld	fa0,216(s0)
 10000a0:	6163636f          	jal	t1,10366b6 <bin_to_hex_table+0x35846>
 10000a4:	796d                	lui	s2,0xffffb
 10000a6:	642d                	lui	s0,0xb
 10000a8:	7665                	lui	a2,0xffff9
 10000aa:	0000                	unimp
 10000ac:	0000                	unimp
 10000ae:	0300                	addi	s0,sp,384
 10000b0:	0000                	unimp
 10000b2:	0b00                	addi	s0,sp,400
 10000b4:	0000                	unimp
 10000b6:	2600                	fld	fs0,8(a2)
 10000b8:	7465                	lui	s0,0xffff9
 10000ba:	2c68                	fld	fa0,216(s0)
 10000bc:	6163636f          	jal	t1,10366d2 <bin_to_hex_table+0x35862>
 10000c0:	796d                	lui	s2,0xffffb
 10000c2:	0000                	unimp
 10000c4:	0000                	unimp
 10000c6:	0100                	addi	s0,sp,128
 10000c8:	666e6f63          	bltu	t3,t1,1000746 <device_tree+0x716>
 10000cc:	6769                	lui	a4,0x1a
 10000ce:	0000                	unimp
 10000d0:	0000                	unimp
 10000d2:	0300                	addi	s0,sp,384
 10000d4:	0000                	unimp
 10000d6:	0400                	addi	s0,sp,512
 10000d8:	0000                	unimp
 10000da:	2c00                	fld	fs0,24(s0)
 10000dc:	0006                	c.slli	zero,0x1
 10000de:	0000                	unimp
 10000e0:	0000                	unimp
 10000e2:	0200                	addi	s0,sp,256
 10000e4:	0000                	unimp
 10000e6:	0100                	addi	s0,sp,128
 10000e8:	736f6863          	bltu	t5,s6,1000818 <device_tree+0x7e8>
 10000ec:	6e65                	lui	t3,0x19
 10000ee:	0000                	unimp
 10000f0:	0000                	unimp
 10000f2:	0300                	addi	s0,sp,384
 10000f4:	0000                	unimp
 10000f6:	1b00                	addi	s0,sp,432
 10000f8:	0000                	unimp
 10000fa:	4600                	lw	s0,8(a2)
 10000fc:	636f732f          	0x636f732f
 1000100:	7265732f          	0x7265732f
 1000104:	6169                	addi	sp,sp,208
 1000106:	406c                	lw	a1,68(s0)
 1000108:	3032                	fld	ft0,296(sp)
 100010a:	3230                	fld	fa2,96(a2)
 100010c:	3030                	fld	fa2,96(s0)
 100010e:	3a30                	fld	fa2,112(a2)
 1000110:	3131                	addiw	sp,sp,-20
 1000112:	3235                	addiw	tp,tp,-19
 1000114:	3030                	fld	fa2,96(s0)
 1000116:	0000                	unimp
 1000118:	0000                	unimp
 100011a:	0200                	addi	s0,sp,256
 100011c:	0000                	unimp
 100011e:	0100                	addi	s0,sp,128
 1000120:	656d                	lui	a0,0x1b
 1000122:	6f6d                	lui	t5,0x1b
 1000124:	7972                	ld	s2,312(sp)
 1000126:	3840                	fld	fs0,176(s0)
 1000128:	3030                	fld	fa2,96(s0)
 100012a:	3030                	fld	fa2,96(s0)
 100012c:	3030                	fld	fa2,96(s0)
 100012e:	0030                	addi	a2,sp,8
 1000130:	0000                	unimp
 1000132:	0300                	addi	s0,sp,384
 1000134:	0000                	unimp
 1000136:	0700                	addi	s0,sp,896
 1000138:	0000                	unimp
 100013a:	5200                	lw	s0,32(a2)
 100013c:	656d                	lui	a0,0x1b
 100013e:	6f6d                	lui	t5,0x1b
 1000140:	7972                	ld	s2,312(sp)
 1000142:	0000                	unimp
 1000144:	0000                	unimp
 1000146:	0300                	addi	s0,sp,384
 1000148:	0000                	unimp
 100014a:	1000                	addi	s0,sp,32
 100014c:	0000                	unimp
 100014e:	5e00                	lw	s0,56(a2)
 1000150:	0000                	unimp
 1000152:	0000                	unimp
 1000154:	0080                	addi	s0,sp,64
 1000156:	0000                	unimp
 1000158:	0000                	unimp
 100015a:	0000                	unimp
 100015c:	0040                	addi	s0,sp,4
 100015e:	0000                	unimp
 1000160:	0000                	unimp
 1000162:	0200                	addi	s0,sp,256
 1000164:	0000                	unimp
 1000166:	0100                	addi	s0,sp,128
 1000168:	73757063          	bleu	s7,a0,1000888 <device_tree+0x858>
 100016c:	0000                	unimp
 100016e:	0000                	unimp
 1000170:	0000                	unimp
 1000172:	0300                	addi	s0,sp,384
 1000174:	0000                	unimp
 1000176:	0400                	addi	s0,sp,512
 1000178:	0000                	unimp
 100017a:	0000                	unimp
 100017c:	0000                	unimp
 100017e:	0100                	addi	s0,sp,128
 1000180:	0000                	unimp
 1000182:	0300                	addi	s0,sp,384
 1000184:	0000                	unimp
 1000186:	0400                	addi	s0,sp,512
 1000188:	0000                	unimp
 100018a:	0f00                	addi	s0,sp,912
 100018c:	0000                	unimp
 100018e:	0000                	unimp
 1000190:	0000                	unimp
 1000192:	0300                	addi	s0,sp,384
 1000194:	0000                	unimp
 1000196:	0400                	addi	s0,sp,512
 1000198:	0000                	unimp
 100019a:	6200                	ld	s0,0(a2)
 100019c:	7200                	ld	s0,32(a2)
 100019e:	e070                	sd	a2,192(s0)
 10001a0:	0000                	unimp
 10001a2:	0100                	addi	s0,sp,128
 10001a4:	40757063          	bleu	t2,a0,10005a4 <device_tree+0x574>
 10001a8:	0030                	addi	a2,sp,8
 10001aa:	0000                	unimp
 10001ac:	0000                	unimp
 10001ae:	0300                	addi	s0,sp,384
 10001b0:	0000                	unimp
 10001b2:	0400                	addi	s0,sp,512
 10001b4:	0000                	unimp
 10001b6:	5200                	lw	s0,32(a2)
 10001b8:	00757063          	bleu	t2,a0,10001b8 <device_tree+0x188>
 10001bc:	0000                	unimp
 10001be:	0300                	addi	s0,sp,384
 10001c0:	0000                	unimp
 10001c2:	0500                	addi	s0,sp,640
 10001c4:	0000                	unimp
 10001c6:	7500                	ld	s0,40(a0)
 10001c8:	79616b6f          	jal	s6,101695e <bin_to_hex_table+0x15aee>
 10001cc:	0000                	unimp
 10001ce:	0000                	unimp
 10001d0:	0000                	unimp
 10001d2:	0300                	addi	s0,sp,384
 10001d4:	0000                	unimp
 10001d6:	1100                	addi	s0,sp,160
 10001d8:	0000                	unimp
 10001da:	1b00                	addi	s0,sp,432
 10001dc:	7465                	lui	s0,0xffff9
 10001de:	2c68                	fld	fa0,216(s0)
 10001e0:	7261                	lui	tp,0xffff8
 10001e2:	6169                	addi	sp,sp,208
 10001e4:	656e                	ld	a0,216(sp)
 10001e6:	7200                	ld	s0,32(a2)
 10001e8:	7369                	lui	t1,0xffffa
 10001ea:	00007663          	bleu	zero,zero,10001f6 <device_tree+0x1c6>
 10001ee:	0000                	unimp
 10001f0:	0000                	unimp
 10001f2:	0300                	addi	s0,sp,384
 10001f4:	0000                	unimp
 10001f6:	0400                	addi	s0,sp,512
 10001f8:	0000                	unimp
 10001fa:	7c00                	ld	s0,56(s0)
 10001fc:	7d01                	lui	s10,0xfffe0
 10001fe:	4078                	lw	a4,68(s0)
 1000200:	0000                	unimp
 1000202:	0300                	addi	s0,sp,384
 1000204:	0000                	unimp
 1000206:	0b00                	addi	s0,sp,400
 1000208:	0000                	unimp
 100020a:	8c00                	0x8c00
 100020c:	7672                	ld	a2,312(sp)
 100020e:	3436                	fld	fs0,360(sp)
 1000210:	6966                	ld	s2,88(sp)
 1000212:	616d                	addi	sp,sp,240
 1000214:	6466                	ld	s0,88(sp)
 1000216:	0000                	unimp
 1000218:	0000                	unimp
 100021a:	0300                	addi	s0,sp,384
 100021c:	0000                	unimp
 100021e:	0b00                	addi	s0,sp,400
 1000220:	0000                	unimp
 1000222:	9600                	0x9600
 1000224:	6972                	ld	s2,280(sp)
 1000226:	2c766373          	csrrsi	t1,0x2c7,12
 100022a:	39337673          	csrrci	a2,0x393,6
 100022e:	0000                	unimp
 1000230:	0000                	unimp
 1000232:	0300                	addi	s0,sp,384
 1000234:	0000                	unimp
 1000236:	0000                	unimp
 1000238:	0000                	unimp
 100023a:	9f00                	0x9f00
 100023c:	0000                	unimp
 100023e:	0300                	addi	s0,sp,384
 1000240:	0000                	unimp
 1000242:	0400                	addi	s0,sp,512
 1000244:	0000                	unimp
 1000246:	5e00                	lw	s0,56(a2)
 1000248:	0000                	unimp
 100024a:	0000                	unimp
 100024c:	0000                	unimp
 100024e:	0100                	addi	s0,sp,128
 1000250:	6e69                	lui	t3,0x1a
 1000252:	6574                	ld	a3,200(a0)
 1000254:	7272                	ld	tp,312(sp)
 1000256:	7075                	c.lui	zero,0xffffd
 1000258:	2d74                	fld	fa3,216(a0)
 100025a:	746e6f63          	bltu	t3,t1,10009b8 <device_tree+0x988>
 100025e:	6f72                	ld	t5,280(sp)
 1000260:	6c6c                	ld	a1,216(s0)
 1000262:	7265                	lui	tp,0xffff9
 1000264:	0000                	unimp
 1000266:	0000                	unimp
 1000268:	0000                	unimp
 100026a:	0300                	addi	s0,sp,384
 100026c:	0000                	unimp
 100026e:	0400                	addi	s0,sp,512
 1000270:	0000                	unimp
 1000272:	a900                	fsd	fs0,16(a0)
 1000274:	0000                	unimp
 1000276:	0100                	addi	s0,sp,128
 1000278:	0000                	unimp
 100027a:	0300                	addi	s0,sp,384
 100027c:	0000                	unimp
 100027e:	0000                	unimp
 1000280:	0000                	unimp
 1000282:	ba00                	fsd	fs0,48(a2)
 1000284:	0000                	unimp
 1000286:	0300                	addi	s0,sp,384
 1000288:	0000                	unimp
 100028a:	0f00                	addi	s0,sp,912
 100028c:	0000                	unimp
 100028e:	1b00                	addi	s0,sp,432
 1000290:	6972                	ld	s2,280(sp)
 1000292:	2c766373          	csrrsi	t1,0x2c7,12
 1000296:	2d757063          	bleu	s7,a0,1000556 <device_tree+0x526>
 100029a:	6e69                	lui	t3,0x1a
 100029c:	6374                	ld	a3,192(a4)
 100029e:	0000                	unimp
 10002a0:	0000                	unimp
 10002a2:	0300                	addi	s0,sp,384
 10002a4:	0000                	unimp
 10002a6:	0400                	addi	s0,sp,512
 10002a8:	0000                	unimp
 10002aa:	cf00                	sw	s0,24(a4)
 10002ac:	0000                	unimp
 10002ae:	0100                	addi	s0,sp,128
 10002b0:	0000                	unimp
 10002b2:	0200                	addi	s0,sp,256
 10002b4:	0000                	unimp
 10002b6:	0200                	addi	s0,sp,256
 10002b8:	0000                	unimp
 10002ba:	0200                	addi	s0,sp,256
 10002bc:	0000                	unimp
 10002be:	0100                	addi	s0,sp,128
 10002c0:	00636f73          	csrrsi	t5,0x6,6
 10002c4:	0000                	unimp
 10002c6:	0300                	addi	s0,sp,384
 10002c8:	0000                	unimp
 10002ca:	0400                	addi	s0,sp,512
 10002cc:	0000                	unimp
 10002ce:	0000                	unimp
 10002d0:	0000                	unimp
 10002d2:	0200                	addi	s0,sp,256
 10002d4:	0000                	unimp
 10002d6:	0300                	addi	s0,sp,384
 10002d8:	0000                	unimp
 10002da:	0400                	addi	s0,sp,512
 10002dc:	0000                	unimp
 10002de:	0f00                	addi	s0,sp,912
 10002e0:	0000                	unimp
 10002e2:	0200                	addi	s0,sp,256
 10002e4:	0000                	unimp
 10002e6:	0300                	addi	s0,sp,384
 10002e8:	0000                	unimp
 10002ea:	0b00                	addi	s0,sp,400
 10002ec:	0000                	unimp
 10002ee:	1b00                	addi	s0,sp,432
 10002f0:	706d6973          	csrrsi	s2,0x706,26
 10002f4:	656c                	ld	a1,200(a0)
 10002f6:	622d                	lui	tp,0xb
 10002f8:	7375                	lui	t1,0xffffd
 10002fa:	0000                	unimp
 10002fc:	0000                	unimp
 10002fe:	0300                	addi	s0,sp,384
 1000300:	0000                	unimp
 1000302:	0000                	unimp
 1000304:	0000                	unimp
 1000306:	d700                	sw	s0,40(a4)
 1000308:	0000                	unimp
 100030a:	0100                	addi	s0,sp,128
 100030c:	6564                	ld	s1,200(a0)
 100030e:	7562                	ld	a0,56(sp)
 1000310:	00304067          	0x304067
 1000314:	0000                	unimp
 1000316:	0300                	addi	s0,sp,384
 1000318:	0000                	unimp
 100031a:	1000                	addi	s0,sp,32
 100031c:	0000                	unimp
 100031e:	1b00                	addi	s0,sp,432
 1000320:	6972                	ld	s2,280(sp)
 1000322:	2c766373          	csrrsi	t1,0x2c7,12
 1000326:	6564                	ld	s1,200(a0)
 1000328:	7562                	ld	a0,56(sp)
 100032a:	31302d67          	0x31302d67
 100032e:	00000033          	add	zero,zero,zero
 1000332:	0300                	addi	s0,sp,384
 1000334:	0000                	unimp
 1000336:	0800                	addi	s0,sp,16
 1000338:	0000                	unimp
 100033a:	de00                	sw	s0,56(a2)
 100033c:	0000                	unimp
 100033e:	0100                	addi	s0,sp,128
 1000340:	0000                	unimp
 1000342:	ffff                	0xffff
 1000344:	0000                	unimp
 1000346:	0300                	addi	s0,sp,384
 1000348:	0000                	unimp
 100034a:	0800                	addi	s0,sp,16
 100034c:	0000                	unimp
 100034e:	f200                	sd	s0,32(a2)
 1000350:	746e6f63          	bltu	t3,t1,1000aae <device_tree+0xa7e>
 1000354:	6f72                	ld	t5,280(sp)
 1000356:	006c                	addi	a1,sp,12
 1000358:	0000                	unimp
 100035a:	0300                	addi	s0,sp,384
 100035c:	0000                	unimp
 100035e:	1000                	addi	s0,sp,32
 1000360:	0000                	unimp
 1000362:	5e00                	lw	s0,56(a2)
	...
 1000370:	0000                	unimp
 1000372:	0010                	0x10
 1000374:	0000                	unimp
 1000376:	0200                	addi	s0,sp,256
 1000378:	0000                	unimp
 100037a:	0100                	addi	s0,sp,128
 100037c:	69726573          	csrrsi	a0,0x697,4
 1000380:	6c61                	lui	s8,0x18
 1000382:	3240                	fld	fs0,160(a2)
 1000384:	3030                	fld	fa2,96(s0)
 1000386:	3032                	fld	ft0,296(sp)
 1000388:	3030                	fld	fa2,96(s0)
 100038a:	0000                	unimp
 100038c:	0000                	unimp
 100038e:	0300                	addi	s0,sp,384
 1000390:	0000                	unimp
 1000392:	0800                	addi	s0,sp,16
 1000394:	0000                	unimp
 1000396:	1b00                	addi	s0,sp,432
 1000398:	736e                	ld	t1,248(sp)
 100039a:	3631                	addiw	a2,a2,-20
 100039c:	3535                	addiw	a0,a0,-19
 100039e:	0030                	addi	a2,sp,8
 10003a0:	0000                	unimp
 10003a2:	0300                	addi	s0,sp,384
 10003a4:	0000                	unimp
 10003a6:	1000                	addi	s0,sp,32
 10003a8:	0000                	unimp
 10003aa:	5e00                	lw	s0,56(a2)
 10003ac:	0000                	unimp
 10003ae:	0000                	unimp
 10003b0:	0002                	c.slli64	zero
 10003b2:	0020                	addi	s0,sp,8
 10003b4:	0000                	unimp
 10003b6:	0000                	unimp
 10003b8:	0000                	unimp
 10003ba:	0010                	0x10
 10003bc:	0000                	unimp
 10003be:	0300                	addi	s0,sp,384
 10003c0:	0000                	unimp
 10003c2:	0400                	addi	s0,sp,512
 10003c4:	0000                	unimp
 10003c6:	7c00                	ld	s0,56(s0)
 10003c8:	7d01                	lui	s10,0xfffe0
 10003ca:	4078                	lw	a4,68(s0)
 10003cc:	0000                	unimp
 10003ce:	0300                	addi	s0,sp,384
 10003d0:	0000                	unimp
 10003d2:	0400                	addi	s0,sp,512
 10003d4:	0000                	unimp
 10003d6:	fc00                	sd	s0,56(s0)
 10003d8:	0100                	addi	s0,sp,128
 10003da:	00c2                	slli	ra,ra,0x10
 10003dc:	0000                	unimp
 10003de:	0300                	addi	s0,sp,384
 10003e0:	0000                	unimp
 10003e2:	0400                	addi	s0,sp,512
 10003e4:	0000                	unimp
 10003e6:	0a01                	addi	s4,s4,0
 10003e8:	0000                	unimp
 10003ea:	0200                	addi	s0,sp,256
 10003ec:	0000                	unimp
 10003ee:	0300                	addi	s0,sp,384
 10003f0:	0000                	unimp
 10003f2:	0400                	addi	s0,sp,512
 10003f4:	0000                	unimp
 10003f6:	1b01                	addi	s6,s6,-32
 10003f8:	0000                	unimp
 10003fa:	2100                	fld	fs0,0(a0)
 10003fc:	0000                	unimp
 10003fe:	0300                	addi	s0,sp,384
 1000400:	0000                	unimp
 1000402:	0400                	addi	s0,sp,512
 1000404:	0000                	unimp
 1000406:	2601                	sext.w	a2,a2
 1000408:	0000                	unimp
 100040a:	0000                	unimp
 100040c:	0000                	unimp
 100040e:	0300                	addi	s0,sp,384
 1000410:	0000                	unimp
 1000412:	0400                	addi	s0,sp,512
 1000414:	0000                	unimp
 1000416:	3101                	addiw	sp,sp,-32
 1000418:	0000                	unimp
 100041a:	0200                	addi	s0,sp,256
 100041c:	0000                	unimp
 100041e:	0300                	addi	s0,sp,384
 1000420:	0000                	unimp
 1000422:	0400                	addi	s0,sp,512
 1000424:	0000                	unimp
 1000426:	3b01                	addiw	s6,s6,-32
 1000428:	0000                	unimp
 100042a:	0400                	addi	s0,sp,512
 100042c:	0000                	unimp
 100042e:	0200                	addi	s0,sp,256
 1000430:	0000                	unimp
 1000432:	0100                	addi	s0,sp,128
 1000434:	6974                	ld	a3,208(a0)
 1000436:	656d                	lui	a0,0x1b
 1000438:	4072                	0x4072
 100043a:	3032                	fld	ft0,296(sp)
 100043c:	3630                	fld	fa2,104(a2)
 100043e:	3030                	fld	fa2,96(s0)
 1000440:	0030                	addi	a2,sp,8
 1000442:	0000                	unimp
 1000444:	0000                	unimp
 1000446:	0300                	addi	s0,sp,384
 1000448:	0000                	unimp
 100044a:	0f00                	addi	s0,sp,912
 100044c:	0000                	unimp
 100044e:	1b00                	addi	s0,sp,432
 1000450:	7570                	ld	a2,232(a0)
 1000452:	706c                	ld	a1,224(s0)
 1000454:	612c                	ld	a1,64(a0)
 1000456:	6270                	ld	a2,192(a2)
 1000458:	745f 6d69 7265      	0x72656d69745f
 100045e:	0000                	unimp
 1000460:	0000                	unimp
 1000462:	0300                	addi	s0,sp,384
 1000464:	0000                	unimp
 1000466:	1000                	addi	s0,sp,32
 1000468:	0000                	unimp
 100046a:	1b01                	addi	s6,s6,-32
 100046c:	0000                	unimp
 100046e:	6700                	ld	s0,8(a4)
 1000470:	0000                	unimp
 1000472:	6800                	ld	s0,16(s0)
 1000474:	0000                	unimp
 1000476:	6900                	ld	s0,16(a0)
 1000478:	0000                	unimp
 100047a:	7000                	ld	s0,32(s0)
 100047c:	0000                	unimp
 100047e:	0300                	addi	s0,sp,384
 1000480:	0000                	unimp
 1000482:	1000                	addi	s0,sp,32
 1000484:	0000                	unimp
 1000486:	5e00                	lw	s0,56(a2)
 1000488:	0000                	unimp
 100048a:	0000                	unimp
 100048c:	0002                	c.slli64	zero
 100048e:	0060                	addi	s0,sp,12
 1000490:	0000                	unimp
 1000492:	0000                	unimp
 1000494:	0000                	unimp
 1000496:	0010                	0x10
 1000498:	0000                	unimp
 100049a:	0300                	addi	s0,sp,384
 100049c:	0000                	unimp
 100049e:	0400                	addi	s0,sp,512
 10004a0:	0000                	unimp
 10004a2:	0a01                	addi	s4,s4,0
 10004a4:	0000                	unimp
 10004a6:	0200                	addi	s0,sp,256
 10004a8:	0000                	unimp
 10004aa:	0300                	addi	s0,sp,384
 10004ac:	0000                	unimp
 10004ae:	0800                	addi	s0,sp,16
 10004b0:	0000                	unimp
 10004b2:	f200                	sd	s0,32(a2)
 10004b4:	746e6f63          	bltu	t3,t1,1000c12 <bin_to_hex+0x16>
 10004b8:	6f72                	ld	t5,280(sp)
 10004ba:	006c                	addi	a1,sp,12
 10004bc:	0000                	unimp
 10004be:	0200                	addi	s0,sp,256
 10004c0:	0000                	unimp
 10004c2:	0100                	addi	s0,sp,128
 10004c4:	6976                	ld	s2,344(sp)
 10004c6:	7472                	ld	s0,312(sp)
 10004c8:	315f 3030 686d      	0x686d3030315f
 10004ce:	007a                	c.slli	zero,0x1e
 10004d0:	0000                	unimp
 10004d2:	0300                	addi	s0,sp,384
 10004d4:	0000                	unimp
 10004d6:	0400                	addi	s0,sp,512
 10004d8:	0000                	unimp
 10004da:	4801                	li	a6,0
 10004dc:	0000                	unimp
 10004de:	0000                	unimp
 10004e0:	0000                	unimp
 10004e2:	0300                	addi	s0,sp,384
 10004e4:	0000                	unimp
 10004e6:	0c00                	addi	s0,sp,528
 10004e8:	0000                	unimp
 10004ea:	1b00                	addi	s0,sp,432
 10004ec:	6966                	ld	s2,88(sp)
 10004ee:	6578                	ld	a4,200(a0)
 10004f0:	2d64                	fld	fs1,216(a0)
 10004f2:	636f6c63          	bltu	t5,s6,1000b2a <device_tree+0xafa>
 10004f6:	0000006b          	0x6b
 10004fa:	0300                	addi	s0,sp,384
 10004fc:	0000                	unimp
 10004fe:	0400                	addi	s0,sp,512
 1000500:	0000                	unimp
 1000502:	7c00                	ld	s0,56(s0)
 1000504:	f505                	bnez	a0,100042c <device_tree+0x3fc>
 1000506:	00e1                	addi	ra,ra,24
 1000508:	0000                	unimp
 100050a:	0300                	addi	s0,sp,384
 100050c:	0000                	unimp
 100050e:	0400                	addi	s0,sp,512
 1000510:	0000                	unimp
 1000512:	cf00                	sw	s0,24(a4)
 1000514:	0000                	unimp
 1000516:	0300                	addi	s0,sp,384
 1000518:	0000                	unimp
 100051a:	0200                	addi	s0,sp,256
 100051c:	0000                	unimp
 100051e:	0100                	addi	s0,sp,128
 1000520:	40697073          	csrci	0x406,18
 1000524:	6334                	ld	a3,64(a4)
 1000526:	3030                	fld	fa2,96(s0)
 1000528:	3030                	fld	fa2,96(s0)
 100052a:	3030                	fld	fa2,96(s0)
 100052c:	0000                	unimp
 100052e:	0000                	unimp
 1000530:	0000                	unimp
 1000532:	0300                	addi	s0,sp,384
 1000534:	0000                	unimp
 1000536:	2a00                	fld	fs0,16(a2)
 1000538:	0000                	unimp
 100053a:	1b00                	addi	s0,sp,432
 100053c:	6c78                	ld	a4,216(s0)
 100053e:	786e                	ld	a6,248(sp)
 1000540:	612c                	ld	a1,64(a0)
 1000542:	6978                	ld	a4,208(a0)
 1000544:	712d                	addi	sp,sp,-288
 1000546:	6175                	addi	sp,sp,368
 1000548:	2d64                	fld	fs1,216(a0)
 100054a:	2d697073          	csrci	0x2d6,18
 100054e:	00322e33          	slt	t3,tp,gp
 1000552:	6c78                	ld	a4,216(s0)
 1000554:	786e                	ld	a6,248(sp)
 1000556:	782c                	ld	a1,112(s0)
 1000558:	7370                	ld	a2,224(a4)
 100055a:	732d                	lui	t1,0xfffeb
 100055c:	6970                	ld	a2,208(a0)
 100055e:	322d                	addiw	tp,tp,-21
 1000560:	302e                	fld	ft0,232(sp)
 1000562:	2e30                	fld	fa2,88(a2)
 1000564:	0061                	c.nop	24
 1000566:	0000                	unimp
 1000568:	0000                	unimp
 100056a:	0300                	addi	s0,sp,384
 100056c:	0000                	unimp
 100056e:	0400                	addi	s0,sp,512
 1000570:	0000                	unimp
 1000572:	0a01                	addi	s4,s4,0
 1000574:	0000                	unimp
 1000576:	0200                	addi	s0,sp,256
 1000578:	0000                	unimp
 100057a:	0300                	addi	s0,sp,384
 100057c:	0000                	unimp
 100057e:	0400                	addi	s0,sp,512
 1000580:	0000                	unimp
 1000582:	1b01                	addi	s6,s6,-32
 1000584:	0000                	unimp
 1000586:	0200                	addi	s0,sp,256
 1000588:	0000                	unimp
 100058a:	0300                	addi	s0,sp,384
 100058c:	0000                	unimp
 100058e:	0400                	addi	s0,sp,512
 1000590:	0000                	unimp
 1000592:	5501                	li	a0,-32
 1000594:	0000                	unimp
 1000596:	0300                	addi	s0,sp,384
 1000598:	0000                	unimp
 100059a:	0300                	addi	s0,sp,384
 100059c:	0000                	unimp
 100059e:	1000                	addi	s0,sp,32
 10005a0:	0000                	unimp
 10005a2:	5e00                	lw	s0,56(a2)
 10005a4:	0000                	unimp
 10005a6:	0000                	unimp
 10005a8:	004c                	addi	a1,sp,4
 10005aa:	0000                	unimp
 10005ac:	0000                	unimp
 10005ae:	0000                	unimp
 10005b0:	0100                	addi	s0,sp,128
 10005b2:	0000                	unimp
 10005b4:	0000                	unimp
 10005b6:	0300                	addi	s0,sp,384
 10005b8:	0000                	unimp
 10005ba:	0400                	addi	s0,sp,512
 10005bc:	0000                	unimp
 10005be:	5c01                	li	s8,-32
 10005c0:	0000                	unimp
 10005c2:	0100                	addi	s0,sp,128
 10005c4:	0000                	unimp
 10005c6:	0300                	addi	s0,sp,384
 10005c8:	0000                	unimp
 10005ca:	0400                	addi	s0,sp,512
 10005cc:	0000                	unimp
 10005ce:	6d01                	0x6d01
 10005d0:	0000                	unimp
 10005d2:	0800                	addi	s0,sp,16
 10005d4:	0000                	unimp
 10005d6:	0300                	addi	s0,sp,384
 10005d8:	0000                	unimp
 10005da:	0400                	addi	s0,sp,512
 10005dc:	0000                	unimp
 10005de:	8401                	c.srai64	s0
 10005e0:	0000                	unimp
 10005e2:	1000                	addi	s0,sp,32
 10005e4:	0000                	unimp
 10005e6:	0300                	addi	s0,sp,384
 10005e8:	0000                	unimp
 10005ea:	0400                	addi	s0,sp,512
 10005ec:	0000                	unimp
 10005ee:	0000                	unimp
 10005f0:	0000                	unimp
 10005f2:	0100                	addi	s0,sp,128
 10005f4:	0000                	unimp
 10005f6:	0300                	addi	s0,sp,384
 10005f8:	0000                	unimp
 10005fa:	0400                	addi	s0,sp,512
 10005fc:	0000                	unimp
 10005fe:	0f00                	addi	s0,sp,912
 1000600:	0000                	unimp
 1000602:	0000                	unimp
 1000604:	0000                	unimp
 1000606:	0100                	addi	s0,sp,128
 1000608:	6f6e                	ld	t5,216(sp)
 100060a:	4072                	0x4072
 100060c:	0030                	addi	a2,sp,8
 100060e:	0000                	unimp
 1000610:	0000                	unimp
 1000612:	0300                	addi	s0,sp,384
 1000614:	0000                	unimp
 1000616:	0400                	addi	s0,sp,512
 1000618:	0000                	unimp
 100061a:	0000                	unimp
 100061c:	0000                	unimp
 100061e:	0100                	addi	s0,sp,128
 1000620:	0000                	unimp
 1000622:	0300                	addi	s0,sp,384
 1000624:	0000                	unimp
 1000626:	0400                	addi	s0,sp,512
 1000628:	0000                	unimp
 100062a:	0f00                	addi	s0,sp,912
 100062c:	0000                	unimp
 100062e:	0100                	addi	s0,sp,128
 1000630:	0000                	unimp
 1000632:	0300                	addi	s0,sp,384
 1000634:	0000                	unimp
 1000636:	0e00                	addi	s0,sp,784
 1000638:	0000                	unimp
 100063a:	1b00                	addi	s0,sp,432
 100063c:	696d                	lui	s2,0x1b
 100063e:	6e6f7263          	bleu	t1,t5,1000d22 <main+0xe>
 1000642:	6d2c                	ld	a1,88(a0)
 1000644:	3532                	fld	fa0,296(sp)
 1000646:	3870                	fld	fa2,240(s0)
 1000648:	0030                	addi	a2,sp,8
 100064a:	0000                	unimp
 100064c:	0000                	unimp
 100064e:	0300                	addi	s0,sp,384
 1000650:	0000                	unimp
 1000652:	0800                	addi	s0,sp,16
 1000654:	0000                	unimp
 1000656:	5e00                	lw	s0,56(a2)
	...
 1000660:	0000                	unimp
 1000662:	0300                	addi	s0,sp,384
 1000664:	0000                	unimp
 1000666:	0400                	addi	s0,sp,512
 1000668:	0000                	unimp
 100066a:	8e01                	sub	a2,a2,s0
 100066c:	7d01                	lui	s10,0xfffe0
 100066e:	4078                	lw	a4,68(s0)
 1000670:	0000                	unimp
 1000672:	0300                	addi	s0,sp,384
 1000674:	0000                	unimp
 1000676:	0400                	addi	s0,sp,512
 1000678:	0000                	unimp
 100067a:	a001                	j	100067a <device_tree+0x64a>
 100067c:	0000                	unimp
 100067e:	0400                	addi	s0,sp,512
 1000680:	0000                	unimp
 1000682:	0300                	addi	s0,sp,384
 1000684:	0000                	unimp
 1000686:	0400                	addi	s0,sp,512
 1000688:	0000                	unimp
 100068a:	b101                	j	100028a <device_tree+0x25a>
 100068c:	0000                	unimp
 100068e:	0400                	addi	s0,sp,512
 1000690:	0000                	unimp
 1000692:	0300                	addi	s0,sp,384
 1000694:	0000                	unimp
 1000696:	0000                	unimp
 1000698:	0000                	unimp
 100069a:	c201                	beqz	a2,100069a <device_tree+0x66a>
 100069c:	0000                	unimp
 100069e:	0100                	addi	s0,sp,128
 10006a0:	6170                	ld	a2,192(a0)
 10006a2:	7472                	ld	s0,312(sp)
 10006a4:	7469                	lui	s0,0xffffa
 10006a6:	6f69                	lui	t5,0x1a
 10006a8:	406e                	0x406e
 10006aa:	0030                	addi	a2,sp,8
 10006ac:	0000                	unimp
 10006ae:	0300                	addi	s0,sp,384
 10006b0:	0000                	unimp
 10006b2:	0a00                	addi	s0,sp,272
 10006b4:	0000                	unimp
 10006b6:	d101                	beqz	a0,10005b6 <device_tree+0x586>
 10006b8:	6962                	ld	s2,24(sp)
 10006ba:	7374                	ld	a3,224(a4)
 10006bc:	7274                	ld	a3,224(a2)
 10006be:	6165                	addi	sp,sp,112
 10006c0:	006d                	c.nop	27
 10006c2:	0000                	unimp
 10006c4:	0000                	unimp
 10006c6:	0300                	addi	s0,sp,384
 10006c8:	0000                	unimp
 10006ca:	0800                	addi	s0,sp,16
 10006cc:	0000                	unimp
 10006ce:	5e00                	lw	s0,56(a2)
 10006d0:	0000                	unimp
 10006d2:	0000                	unimp
 10006d4:	0006                	c.slli	zero,0x1
 10006d6:	0000                	unimp
 10006d8:	0000                	unimp
 10006da:	0300                	addi	s0,sp,384
 10006dc:	0000                	unimp
 10006de:	0000                	unimp
 10006e0:	0000                	unimp
 10006e2:	d701                	beqz	a4,10005ea <device_tree+0x5ba>
 10006e4:	0000                	unimp
 10006e6:	0200                	addi	s0,sp,256
 10006e8:	0000                	unimp
 10006ea:	0100                	addi	s0,sp,128
 10006ec:	6170                	ld	a2,192(a0)
 10006ee:	7472                	ld	s0,312(sp)
 10006f0:	7469                	lui	s0,0xffffa
 10006f2:	6f69                	lui	t5,0x1a
 10006f4:	406e                	0x406e
 10006f6:	3036                	fld	ft0,360(sp)
 10006f8:	3030                	fld	fa2,96(s0)
 10006fa:	3030                	fld	fa2,96(s0)
 10006fc:	0030                	addi	a2,sp,8
 10006fe:	0000                	unimp
 1000700:	0000                	unimp
 1000702:	0300                	addi	s0,sp,384
 1000704:	0000                	unimp
 1000706:	0700                	addi	s0,sp,896
 1000708:	0000                	unimp
 100070a:	d101                	beqz	a0,100060a <device_tree+0x5da>
 100070c:	2d75                	addiw	s10,s10,29
 100070e:	6f62                	ld	t5,24(sp)
 1000710:	0000746f          	jal	s0,1007710 <bin_to_hex_table+0x68a0>
 1000714:	0000                	unimp
 1000716:	0300                	addi	s0,sp,384
 1000718:	0000                	unimp
 100071a:	0800                	addi	s0,sp,16
 100071c:	0000                	unimp
 100071e:	5e00                	lw	s0,56(a2)
 1000720:	0006                	c.slli	zero,0x1
 1000722:	0000                	unimp
 1000724:	1000                	addi	s0,sp,32
 1000726:	0000                	unimp
 1000728:	0000                	unimp
 100072a:	0300                	addi	s0,sp,384
 100072c:	0000                	unimp
 100072e:	0000                	unimp
 1000730:	0000                	unimp
 1000732:	d701                	beqz	a4,100063a <device_tree+0x60a>
 1000734:	0000                	unimp
 1000736:	0200                	addi	s0,sp,256
 1000738:	0000                	unimp
 100073a:	0100                	addi	s0,sp,128
 100073c:	6975                	lui	s2,0x1d
 100073e:	616d                	addi	sp,sp,240
 1000740:	36406567          	0x36406567
 1000744:	3031                	0x3031
 1000746:	3030                	fld	fa2,96(s0)
 1000748:	3030                	fld	fa2,96(s0)
 100074a:	0000                	unimp
 100074c:	0000                	unimp
 100074e:	0300                	addi	s0,sp,384
 1000750:	0000                	unimp
 1000752:	0700                	addi	s0,sp,896
 1000754:	0000                	unimp
 1000756:	d101                	beqz	a0,1000656 <device_tree+0x626>
 1000758:	6975                	lui	s2,0x1d
 100075a:	616d                	addi	sp,sp,240
 100075c:	00006567          	0x6567
 1000760:	0000                	unimp
 1000762:	0300                	addi	s0,sp,384
 1000764:	0000                	unimp
 1000766:	0800                	addi	s0,sp,16
 1000768:	0000                	unimp
 100076a:	5e00                	lw	s0,56(a2)
 100076c:	1006                	c.slli	zero,0x21
 100076e:	0000                	unimp
 1000770:	0001                	nop
 1000772:	0000                	unimp
 1000774:	0000                	unimp
 1000776:	0300                	addi	s0,sp,384
 1000778:	0000                	unimp
 100077a:	0000                	unimp
 100077c:	0000                	unimp
 100077e:	d701                	beqz	a4,1000686 <device_tree+0x656>
 1000780:	0000                	unimp
 1000782:	0200                	addi	s0,sp,256
 1000784:	0000                	unimp
 1000786:	0100                	addi	s0,sp,128
 1000788:	6170                	ld	a2,192(a0)
 100078a:	7472                	ld	s0,312(sp)
 100078c:	7469                	lui	s0,0xffffa
 100078e:	6f69                	lui	t5,0x1a
 1000790:	406e                	0x406e
 1000792:	30303137          	lui	sp,0x30303
 1000796:	3030                	fld	fa2,96(s0)
 1000798:	0030                	addi	a2,sp,8
 100079a:	0000                	unimp
 100079c:	0000                	unimp
 100079e:	0300                	addi	s0,sp,384
 10007a0:	0000                	unimp
 10007a2:	0b00                	addi	s0,sp,400
 10007a4:	0000                	unimp
 10007a6:	d101                	beqz	a0,10006a6 <device_tree+0x676>
 10007a8:	6966                	ld	s2,88(sp)
 10007aa:	656c                	ld	a1,200(a0)
 10007ac:	74737973          	csrrci	s2,0x747,6
 10007b0:	6d65                	lui	s10,0x19
 10007b2:	0000                	unimp
 10007b4:	0000                	unimp
 10007b6:	0300                	addi	s0,sp,384
 10007b8:	0000                	unimp
 10007ba:	0800                	addi	s0,sp,16
 10007bc:	0000                	unimp
 10007be:	5e00                	lw	s0,56(a2)
 10007c0:	00001007          	0x1007
 10007c4:	f008                	sd	a0,32(s0)
 10007c6:	0000                	unimp
 10007c8:	0000                	unimp
 10007ca:	0200                	addi	s0,sp,256
 10007cc:	0000                	unimp
 10007ce:	0200                	addi	s0,sp,256
 10007d0:	0000                	unimp
 10007d2:	0200                	addi	s0,sp,256
 10007d4:	0000                	unimp
 10007d6:	0100                	addi	s0,sp,128
 10007d8:	6e696c63          	bltu	s2,t1,1000ed0 <bin_to_hex_table+0x60>
 10007dc:	4074                	lw	a3,68(s0)
 10007de:	3034                	fld	fa3,96(s0)
 10007e0:	3030                	fld	fa2,96(s0)
 10007e2:	3030                	fld	fa2,96(s0)
 10007e4:	0030                	addi	a2,sp,8
 10007e6:	0000                	unimp
 10007e8:	0000                	unimp
 10007ea:	0300                	addi	s0,sp,384
 10007ec:	0000                	unimp
 10007ee:	0400                	addi	s0,sp,512
 10007f0:	0000                	unimp
 10007f2:	7c00                	ld	s0,56(s0)
 10007f4:	7200                	ld	s0,32(a2)
 10007f6:	e070                	sd	a2,192(s0)
 10007f8:	0000                	unimp
 10007fa:	0300                	addi	s0,sp,384
 10007fc:	0000                	unimp
 10007fe:	0d00                	addi	s0,sp,656
 1000800:	0000                	unimp
 1000802:	1b00                	addi	s0,sp,432
 1000804:	6972                	ld	s2,280(sp)
 1000806:	2c766373          	csrrsi	t1,0x2c7,12
 100080a:	6e696c63          	bltu	s2,t1,1000f02 <bin_to_hex_table+0x92>
 100080e:	3074                	fld	fa3,224(s0)
 1000810:	0000                	unimp
 1000812:	0000                	unimp
 1000814:	0000                	unimp
 1000816:	0300                	addi	s0,sp,384
 1000818:	0000                	unimp
 100081a:	1000                	addi	s0,sp,32
 100081c:	0000                	unimp
 100081e:	de00                	sw	s0,56(a2)
 1000820:	0000                	unimp
 1000822:	0100                	addi	s0,sp,128
 1000824:	0000                	unimp
 1000826:	0300                	addi	s0,sp,384
 1000828:	0000                	unimp
 100082a:	0100                	addi	s0,sp,128
 100082c:	0000                	unimp
 100082e:	0700                	addi	s0,sp,896
 1000830:	0000                	unimp
 1000832:	0300                	addi	s0,sp,384
 1000834:	0000                	unimp
 1000836:	0800                	addi	s0,sp,16
 1000838:	0000                	unimp
 100083a:	f200                	sd	s0,32(a2)
 100083c:	746e6f63          	bltu	t3,t1,1000f9a <bin_to_hex_table+0x12a>
 1000840:	6f72                	ld	t5,280(sp)
 1000842:	006c                	addi	a1,sp,12
 1000844:	0000                	unimp
 1000846:	0300                	addi	s0,sp,384
 1000848:	0000                	unimp
 100084a:	1000                	addi	s0,sp,32
 100084c:	0000                	unimp
 100084e:	5e00                	lw	s0,56(a2)
 1000850:	0000                	unimp
 1000852:	0000                	unimp
 1000854:	0004                	0x4
 1000856:	0000                	unimp
 1000858:	0000                	unimp
 100085a:	0000                	unimp
 100085c:	1000                	addi	s0,sp,32
 100085e:	0000                	unimp
 1000860:	0000                	unimp
 1000862:	0200                	addi	s0,sp,256
 1000864:	0000                	unimp
 1000866:	0100                	addi	s0,sp,128
 1000868:	6e69                	lui	t3,0x1a
 100086a:	6574                	ld	a3,200(a0)
 100086c:	7272                	ld	tp,312(sp)
 100086e:	7075                	c.lui	zero,0xffffd
 1000870:	2d74                	fld	fa3,216(a0)
 1000872:	746e6f63          	bltu	t3,t1,1000fd0 <bin_to_hex_table+0x160>
 1000876:	6f72                	ld	t5,280(sp)
 1000878:	6c6c                	ld	a1,216(s0)
 100087a:	7265                	lui	tp,0xffff9
 100087c:	6340                	ld	s0,128(a4)
 100087e:	3030                	fld	fa2,96(s0)
 1000880:	3030                	fld	fa2,96(s0)
 1000882:	3030                	fld	fa2,96(s0)
 1000884:	0000                	unimp
 1000886:	0000                	unimp
 1000888:	0000                	unimp
 100088a:	0300                	addi	s0,sp,384
 100088c:	0000                	unimp
 100088e:	0c00                	addi	s0,sp,528
 1000890:	0000                	unimp
 1000892:	1b00                	addi	s0,sp,432
 1000894:	6972                	ld	s2,280(sp)
 1000896:	2c766373          	csrrsi	t1,0x2c7,12
 100089a:	6c70                	ld	a2,216(s0)
 100089c:	6369                	lui	t1,0x1a
 100089e:	0030                	addi	a2,sp,8
 10008a0:	0000                	unimp
 10008a2:	0300                	addi	s0,sp,384
 10008a4:	0000                	unimp
 10008a6:	0400                	addi	s0,sp,512
	...
 10008b0:	0000                	unimp
 10008b2:	0300                	addi	s0,sp,384
 10008b4:	0000                	unimp
 10008b6:	0400                	addi	s0,sp,512
 10008b8:	0000                	unimp
 10008ba:	a900                	fsd	fs0,16(a0)
 10008bc:	0000                	unimp
 10008be:	0100                	addi	s0,sp,128
 10008c0:	0000                	unimp
 10008c2:	0300                	addi	s0,sp,384
 10008c4:	0000                	unimp
 10008c6:	0000                	unimp
 10008c8:	0000                	unimp
 10008ca:	ba00                	fsd	fs0,48(a2)
 10008cc:	0000                	unimp
 10008ce:	0300                	addi	s0,sp,384
 10008d0:	0000                	unimp
 10008d2:	1000                	addi	s0,sp,32
 10008d4:	0000                	unimp
 10008d6:	de00                	sw	s0,56(a2)
 10008d8:	0000                	unimp
 10008da:	0100                	addi	s0,sp,128
 10008dc:	0000                	unimp
 10008de:	0b00                	addi	s0,sp,400
 10008e0:	0000                	unimp
 10008e2:	0100                	addi	s0,sp,128
 10008e4:	0000                	unimp
 10008e6:	0900                	addi	s0,sp,144
 10008e8:	0000                	unimp
 10008ea:	0300                	addi	s0,sp,384
 10008ec:	0000                	unimp
 10008ee:	0400                	addi	s0,sp,512
 10008f0:	0000                	unimp
 10008f2:	e101                	bnez	a0,10008f2 <device_tree+0x8c2>
 10008f4:	0000                	unimp
 10008f6:	0600                	addi	s0,sp,768
 10008f8:	0000                	unimp
 10008fa:	0300                	addi	s0,sp,384
 10008fc:	0000                	unimp
 10008fe:	0400                	addi	s0,sp,512
 1000900:	0000                	unimp
 1000902:	f401                	bnez	s0,100080a <device_tree+0x7da>
 1000904:	0000                	unimp
 1000906:	3e00                	fld	fs0,56(a2)
 1000908:	0000                	unimp
 100090a:	0300                	addi	s0,sp,384
 100090c:	0000                	unimp
 100090e:	1000                	addi	s0,sp,32
 1000910:	0000                	unimp
 1000912:	5e00                	lw	s0,56(a2)
 1000914:	0000                	unimp
 1000916:	0000                	unimp
 1000918:	000c                	0xc
 100091a:	0000                	unimp
 100091c:	0000                	unimp
 100091e:	0000                	unimp
 1000920:	0004                	0x4
 1000922:	0000                	unimp
 1000924:	0000                	unimp
 1000926:	0300                	addi	s0,sp,384
 1000928:	0000                	unimp
 100092a:	0400                	addi	s0,sp,512
 100092c:	0000                	unimp
 100092e:	cf00                	sw	s0,24(a4)
 1000930:	0000                	unimp
 1000932:	0200                	addi	s0,sp,256
 1000934:	0000                	unimp
 1000936:	0200                	addi	s0,sp,256
 1000938:	0000                	unimp
 100093a:	0200                	addi	s0,sp,256
 100093c:	0000                	unimp
 100093e:	0200                	addi	s0,sp,256
 1000940:	0000                	unimp
 1000942:	0900                	addi	s0,sp,144
 1000944:	64646123          	0x64646123
 1000948:	6572                	ld	a0,280(sp)
 100094a:	632d7373          	csrrci	t1,0x632,26
 100094e:	6c65                	lui	s8,0x19
 1000950:	736c                	ld	a1,224(a4)
 1000952:	2300                	fld	fs0,0(a4)
 1000954:	657a6973          	csrrsi	s2,0x657,20
 1000958:	632d                	lui	t1,0xb
 100095a:	6c65                	lui	s8,0x19
 100095c:	736c                	ld	a1,224(a4)
 100095e:	6300                	ld	s0,0(a4)
 1000960:	61706d6f          	jal	s10,1007776 <bin_to_hex_table+0x6906>
 1000964:	6974                	ld	a3,208(a0)
 1000966:	6c62                	ld	s8,24(sp)
 1000968:	0065                	c.nop	25
 100096a:	6f6d                	lui	t5,0x1b
 100096c:	6564                	ld	s1,200(a0)
 100096e:	006c                	addi	a1,sp,12
 1000970:	2d75                	addiw	s10,s10,29
 1000972:	6f62                	ld	t5,24(sp)
 1000974:	732c746f          	jal	s0,10c80a6 <bin_to_hex_table+0xc7236>
 1000978:	6c70                	ld	a2,216(s0)
 100097a:	702d                	c.lui	zero,0xfffeb
 100097c:	7961                	lui	s2,0xffff8
 100097e:	6f6c                	ld	a1,216(a4)
 1000980:	6461                	lui	s0,0x18
 1000982:	6f2d                	lui	t5,0xb
 1000984:	6666                	ld	a2,88(sp)
 1000986:	00746573          	csrrsi	a0,0x7,8
 100098a:	6f647473          	csrrci	s0,0x6f6,8
 100098e:	7475                	lui	s0,0xffffd
 1000990:	702d                	c.lui	zero,0xfffeb
 1000992:	7461                	lui	s0,0xffff8
 1000994:	0068                	addi	a0,sp,12
 1000996:	6564                	ld	s1,200(a0)
 1000998:	6976                	ld	s2,344(sp)
 100099a:	745f6563          	bltu	t5,t0,10010e4 <bin_to_hex_table+0x274>
 100099e:	7079                	c.lui	zero,0xffffe
 10009a0:	0065                	c.nop	25
 10009a2:	6572                	ld	a0,280(sp)
 10009a4:	69740067          	jr	1687(s0) # ffffffffffff8697 <bin_to_hex_table+0xfffffffffeff7827>
 10009a8:	656d                	lui	a0,0x1b
 10009aa:	6162                	ld	sp,24(sp)
 10009ac:	662d6573          	csrrsi	a0,0x662,26
 10009b0:	6572                	ld	a0,280(sp)
 10009b2:	7571                	lui	a0,0xffffc
 10009b4:	6e65                	lui	t3,0x19
 10009b6:	73007963          	bleu	a6,zero,10010e8 <bin_to_hex_table+0x278>
 10009ba:	6174                	ld	a3,192(a0)
 10009bc:	7574                	ld	a3,232(a0)
 10009be:	6c630073          	0x6c630073
 10009c2:	2d6b636f          	jal	t1,10b6c98 <bin_to_hex_table+0xb5e28>
 10009c6:	7266                	ld	tp,120(sp)
 10009c8:	7165                	addi	sp,sp,-400
 10009ca:	6575                	lui	a0,0x1d
 10009cc:	636e                	ld	t1,216(sp)
 10009ce:	0079                	c.nop	30
 10009d0:	6972                	ld	s2,280(sp)
 10009d2:	2c766373          	csrrsi	t1,0x2c7,12
 10009d6:	7369                	lui	t1,0xffffa
 10009d8:	0061                	c.nop	24
 10009da:	6d6d                	lui	s10,0x1b
 10009dc:	2d75                	addiw	s10,s10,29
 10009de:	7974                	ld	a3,240(a0)
 10009e0:	6570                	ld	a2,200(a0)
 10009e2:	7400                	ld	s0,40(s0)
 10009e4:	626c                	ld	a1,192(a2)
 10009e6:	732d                	lui	t1,0xfffeb
 10009e8:	6c70                	ld	a2,216(s0)
 10009ea:	7469                	lui	s0,0xffffa
 10009ec:	2300                	fld	fs0,0(a4)
 10009ee:	6e69                	lui	t3,0x1a
 10009f0:	6574                	ld	a3,200(a0)
 10009f2:	7272                	ld	tp,312(sp)
 10009f4:	7075                	c.lui	zero,0xffffd
 10009f6:	2d74                	fld	fa3,216(a0)
 10009f8:	6c6c6563          	bltu	s8,t1,10010c2 <bin_to_hex_table+0x252>
 10009fc:	6e690073          	0x6e690073
 1000a00:	6574                	ld	a3,200(a0)
 1000a02:	7272                	ld	tp,312(sp)
 1000a04:	7075                	c.lui	zero,0xffffd
 1000a06:	2d74                	fld	fa3,216(a0)
 1000a08:	746e6f63          	bltu	t3,t1,1001166 <bin_to_hex_table+0x2f6>
 1000a0c:	6f72                	ld	t5,280(sp)
 1000a0e:	6c6c                	ld	a1,216(s0)
 1000a10:	7265                	lui	tp,0xffff9
 1000a12:	7000                	ld	s0,32(s0)
 1000a14:	6168                	ld	a0,192(a0)
 1000a16:	646e                	ld	s0,216(sp)
 1000a18:	656c                	ld	a1,200(a0)
 1000a1a:	7200                	ld	s0,32(a2)
 1000a1c:	6e61                	lui	t3,0x18
 1000a1e:	00736567          	0x736567
 1000a22:	6e69                	lui	t3,0x1a
 1000a24:	6574                	ld	a3,200(a0)
 1000a26:	7272                	ld	tp,312(sp)
 1000a28:	7075                	c.lui	zero,0xffffd
 1000a2a:	7374                	ld	a3,224(a4)
 1000a2c:	652d                	lui	a0,0xb
 1000a2e:	7478                	ld	a4,232(s0)
 1000a30:	6e65                	lui	t3,0x19
 1000a32:	6564                	ld	s1,200(a0)
 1000a34:	0064                	addi	s1,sp,12
 1000a36:	6572                	ld	a0,280(sp)
 1000a38:	616e2d67          	0x616e2d67
 1000a3c:	656d                	lui	a0,0x1b
 1000a3e:	75630073          	0x75630073
 1000a42:	7272                	ld	tp,312(sp)
 1000a44:	6e65                	lui	t3,0x19
 1000a46:	2d74                	fld	fa3,216(a0)
 1000a48:	65657073          	csrci	0x656,10
 1000a4c:	0064                	addi	s1,sp,12
 1000a4e:	6e69                	lui	t3,0x1a
 1000a50:	6574                	ld	a3,200(a0)
 1000a52:	7272                	ld	tp,312(sp)
 1000a54:	7075                	c.lui	zero,0xffffd
 1000a56:	2d74                	fld	fa3,216(a0)
 1000a58:	6170                	ld	a2,192(a0)
 1000a5a:	6572                	ld	a0,280(sp)
 1000a5c:	746e                	ld	s0,248(sp)
 1000a5e:	6900                	ld	s0,16(a0)
 1000a60:	746e                	ld	s0,248(sp)
 1000a62:	7265                	lui	tp,0xffff9
 1000a64:	7572                	ld	a0,312(sp)
 1000a66:	7470                	ld	a2,232(s0)
 1000a68:	65720073          	0x65720073
 1000a6c:	666f2d67          	0x666f2d67
 1000a70:	7366                	ld	t1,120(sp)
 1000a72:	7465                	lui	s0,0xffff9
 1000a74:	7200                	ld	s0,32(a2)
 1000a76:	6765                	lui	a4,0x19
 1000a78:	732d                	lui	t1,0xfffeb
 1000a7a:	6968                	ld	a0,208(a0)
 1000a7c:	7466                	ld	s0,120(sp)
 1000a7e:	7200                	ld	s0,32(a2)
 1000a80:	6765                	lui	a4,0x19
 1000a82:	692d                	lui	s2,0xb
 1000a84:	69772d6f          	jal	s10,107391a <bin_to_hex_table+0x72aaa>
 1000a88:	7464                	ld	s1,232(s0)
 1000a8a:	0068                	addi	a0,sp,12
 1000a8c:	6f6c6323          	0x6f6c6323
 1000a90:	632d6b63          	bltu	s10,s2,10010c6 <bin_to_hex_table+0x256>
 1000a94:	6c65                	lui	s8,0x19
 1000a96:	736c                	ld	a1,224(a4)
 1000a98:	6300                	ld	s0,0(a4)
 1000a9a:	6f6c                	ld	a1,216(a4)
 1000a9c:	00736b63          	bltu	t1,t2,1000ab2 <device_tree+0xa82>
 1000aa0:	6c78                	ld	a4,216(s0)
 1000aa2:	786e                	ld	a6,248(sp)
 1000aa4:	6e2c                	ld	a1,88(a2)
 1000aa6:	6d75                	lui	s10,0x1d
 1000aa8:	732d                	lui	t1,0xfffeb
 1000aaa:	69622d73          	csrrs	s10,0x696,tp
 1000aae:	7374                	ld	a3,224(a4)
 1000ab0:	7800                	ld	s0,48(s0)
 1000ab2:	6e6c                	ld	a1,216(a2)
 1000ab4:	2c78                	fld	fa4,216(s0)
 1000ab6:	756e                	ld	a0,248(sp)
 1000ab8:	2d6d                	addiw	s10,s10,27
 1000aba:	7274                	ld	a3,224(a2)
 1000abc:	6e61                	lui	t3,0x18
 1000abe:	72656673          	csrrsi	a2,0x726,10
 1000ac2:	622d                	lui	tp,0xb
 1000ac4:	7469                	lui	s0,0xffffa
 1000ac6:	69660073          	0x69660073
 1000aca:	6f66                	ld	t5,88(sp)
 1000acc:	732d                	lui	t1,0xfffeb
 1000ace:	7a69                	lui	s4,0xffffa
 1000ad0:	0065                	c.nop	25
 1000ad2:	2d697073          	csrci	0x2d6,18
 1000ad6:	616d                	addi	sp,sp,240
 1000ad8:	2d78                	fld	fa4,216(a0)
 1000ada:	7266                	ld	tp,120(sp)
 1000adc:	7165                	addi	sp,sp,-400
 1000ade:	6575                	lui	a0,0x1d
 1000ae0:	636e                	ld	t1,216(sp)
 1000ae2:	0079                	c.nop	30
 1000ae4:	2d697073          	csrci	0x2d6,18
 1000ae8:	7872                	ld	a6,312(sp)
 1000aea:	622d                	lui	tp,0xb
 1000aec:	7375                	lui	t1,0xffffd
 1000aee:	772d                	lui	a4,0xfffeb
 1000af0:	6469                	lui	s0,0x1a
 1000af2:	6874                	ld	a3,208(s0)
 1000af4:	7300                	ld	s0,32(a4)
 1000af6:	6970                	ld	a2,208(a0)
 1000af8:	742d                	lui	s0,0xfffeb
 1000afa:	2d78                	fld	fa4,216(a0)
 1000afc:	7562                	ld	a0,56(sp)
 1000afe:	69772d73          	csrrs	s10,0x697,a4
 1000b02:	7464                	ld	s1,232(s0)
 1000b04:	0068                	addi	a0,sp,12
 1000b06:	326d                	addiw	tp,tp,-5
 1000b08:	7035                	c.lui	zero,0xfffed
 1000b0a:	662c                	ld	a1,72(a2)
 1000b0c:	7361                	lui	t1,0xffff8
 1000b0e:	2d74                	fld	fa3,216(a0)
 1000b10:	6572                	ld	a0,280(sp)
 1000b12:	6461                	lui	s0,0x18
 1000b14:	6c00                	ld	s0,24(s0)
 1000b16:	6261                	lui	tp,0x18
 1000b18:	6c65                	lui	s8,0x19
 1000b1a:	7200                	ld	s0,32(a2)
 1000b1c:	6165                	addi	sp,sp,112
 1000b1e:	2d64                	fld	fs1,216(a0)
 1000b20:	796c6e6f          	jal	t3,10c72b6 <bin_to_hex_table+0xc6446>
 1000b24:	7200                	ld	s0,32(a2)
 1000b26:	7369                	lui	t1,0xffffa
 1000b28:	6d2c7663          	bleu	s2,s8,10011f4 <bin_to_hex_table+0x384>
 1000b2c:	7861                	lui	a6,0xffff8
 1000b2e:	702d                	c.lui	zero,0xfffeb
 1000b30:	6972                	ld	s2,280(sp)
 1000b32:	7469726f          	jal	tp,1098278 <bin_to_hex_table+0x97408>
 1000b36:	0079                	c.nop	30
 1000b38:	6972                	ld	s2,280(sp)
 1000b3a:	2c766373          	csrrsi	t1,0x2c7,12
 1000b3e:	646e                	ld	s0,216(sp)
 1000b40:	7665                	lui	a2,0xffff9
	...

0000000001000b44 <handle_trap>:
 1000b44:	00008067          	ret

0000000001000b48 <write_reg_u8>:
 1000b48:	00b50023          	sb	a1,0(a0) # 1d000 <_start-0xfe3000>
 1000b4c:	00008067          	ret

0000000001000b50 <read_reg_u8>:
 1000b50:	00054503          	lbu	a0,0(a0)
 1000b54:	00008067          	ret

0000000001000b58 <is_transmit_empty>:
 1000b58:	020027b7          	lui	a5,0x2002
 1000b5c:	0147c503          	lbu	a0,20(a5) # 2002014 <bin_to_hex_table+0x10011a4>
 1000b60:	02057513          	andi	a0,a0,32
 1000b64:	00008067          	ret

0000000001000b68 <write_serial>:
 1000b68:	02002737          	lui	a4,0x2002
 1000b6c:	01474783          	lbu	a5,20(a4) # 2002014 <bin_to_hex_table+0x10011a4>
 1000b70:	0207f793          	andi	a5,a5,32
 1000b74:	fe078ce3          	beqz	a5,1000b6c <write_serial+0x4>
 1000b78:	00a70023          	sb	a0,0(a4)
 1000b7c:	00008067          	ret

0000000001000b80 <init_uart>:
 1000b80:	0045959b          	slliw	a1,a1,0x4
 1000b84:	02b5553b          	divuw	a0,a0,a1
 1000b88:	020027b7          	lui	a5,0x2002
 1000b8c:	00078223          	sb	zero,4(a5) # 2002004 <bin_to_hex_table+0x1001194>
 1000b90:	f8000713          	li	a4,-128
 1000b94:	00e78623          	sb	a4,12(a5)
 1000b98:	0ff57713          	andi	a4,a0,255
 1000b9c:	0085551b          	srliw	a0,a0,0x8
 1000ba0:	00e78023          	sb	a4,0(a5)
 1000ba4:	0ff57513          	andi	a0,a0,255
 1000ba8:	00a78223          	sb	a0,4(a5)
 1000bac:	00300713          	li	a4,3
 1000bb0:	00e78623          	sb	a4,12(a5)
 1000bb4:	fc700713          	li	a4,-57
 1000bb8:	00e78423          	sb	a4,8(a5)
 1000bbc:	02000713          	li	a4,32
 1000bc0:	00e78823          	sb	a4,16(a5)
 1000bc4:	00008067          	ret

0000000001000bc8 <print_uart>:
 1000bc8:	ff010113          	addi	sp,sp,-16 # 30302ff0 <bin_to_hex_table+0x2f302180>
 1000bcc:	00813023          	sd	s0,0(sp)
 1000bd0:	00113423          	sd	ra,8(sp)
 1000bd4:	00050413          	mv	s0,a0
 1000bd8:	00044503          	lbu	a0,0(s0) # 18000 <_start-0xfe8000>
 1000bdc:	00051a63          	bnez	a0,1000bf0 <print_uart+0x28>
 1000be0:	00813083          	ld	ra,8(sp)
 1000be4:	00013403          	ld	s0,0(sp)
 1000be8:	01010113          	addi	sp,sp,16
 1000bec:	00008067          	ret
 1000bf0:	f79ff0ef          	jal	ra,1000b68 <write_serial>
 1000bf4:	00140413          	addi	s0,s0,1
 1000bf8:	fe1ff06f          	j	1000bd8 <print_uart+0x10>

0000000001000bfc <bin_to_hex>:
 1000bfc:	00000797          	auipc	a5,0x0
 1000c00:	27478793          	addi	a5,a5,628 # 1000e70 <bin_to_hex_table>
 1000c04:	00f57713          	andi	a4,a0,15
 1000c08:	00e78733          	add	a4,a5,a4
 1000c0c:	00074703          	lbu	a4,0(a4)
 1000c10:	00455513          	srli	a0,a0,0x4
 1000c14:	00a787b3          	add	a5,a5,a0
 1000c18:	00e580a3          	sb	a4,1(a1)
 1000c1c:	0007c783          	lbu	a5,0(a5)
 1000c20:	00f58023          	sb	a5,0(a1)
 1000c24:	00008067          	ret

0000000001000c28 <print_uart_int>:
 1000c28:	fd010113          	addi	sp,sp,-48
 1000c2c:	02813023          	sd	s0,32(sp)
 1000c30:	00913c23          	sd	s1,24(sp)
 1000c34:	01213823          	sd	s2,16(sp)
 1000c38:	02113423          	sd	ra,40(sp)
 1000c3c:	00050913          	mv	s2,a0
 1000c40:	01800413          	li	s0,24
 1000c44:	ff800493          	li	s1,-8
 1000c48:	0089553b          	srlw	a0,s2,s0
 1000c4c:	00810593          	addi	a1,sp,8
 1000c50:	0ff57513          	andi	a0,a0,255
 1000c54:	fa9ff0ef          	jal	ra,1000bfc <bin_to_hex>
 1000c58:	00814503          	lbu	a0,8(sp)
 1000c5c:	ff84041b          	addiw	s0,s0,-8
 1000c60:	f09ff0ef          	jal	ra,1000b68 <write_serial>
 1000c64:	00914503          	lbu	a0,9(sp)
 1000c68:	f01ff0ef          	jal	ra,1000b68 <write_serial>
 1000c6c:	fc941ee3          	bne	s0,s1,1000c48 <print_uart_int+0x20>
 1000c70:	02813083          	ld	ra,40(sp)
 1000c74:	02013403          	ld	s0,32(sp)
 1000c78:	01813483          	ld	s1,24(sp)
 1000c7c:	01013903          	ld	s2,16(sp)
 1000c80:	03010113          	addi	sp,sp,48
 1000c84:	00008067          	ret

0000000001000c88 <print_uart_addr>:
 1000c88:	fd010113          	addi	sp,sp,-48
 1000c8c:	02813023          	sd	s0,32(sp)
 1000c90:	00913c23          	sd	s1,24(sp)
 1000c94:	01213823          	sd	s2,16(sp)
 1000c98:	02113423          	sd	ra,40(sp)
 1000c9c:	00050913          	mv	s2,a0
 1000ca0:	03800413          	li	s0,56
 1000ca4:	ff800493          	li	s1,-8
 1000ca8:	00895533          	srl	a0,s2,s0
 1000cac:	00810593          	addi	a1,sp,8
 1000cb0:	0ff57513          	andi	a0,a0,255
 1000cb4:	f49ff0ef          	jal	ra,1000bfc <bin_to_hex>
 1000cb8:	00814503          	lbu	a0,8(sp)
 1000cbc:	ff84041b          	addiw	s0,s0,-8
 1000cc0:	ea9ff0ef          	jal	ra,1000b68 <write_serial>
 1000cc4:	00914503          	lbu	a0,9(sp)
 1000cc8:	ea1ff0ef          	jal	ra,1000b68 <write_serial>
 1000ccc:	fc941ee3          	bne	s0,s1,1000ca8 <print_uart_addr+0x20>
 1000cd0:	02813083          	ld	ra,40(sp)
 1000cd4:	02013403          	ld	s0,32(sp)
 1000cd8:	01813483          	ld	s1,24(sp)
 1000cdc:	01013903          	ld	s2,16(sp)
 1000ce0:	03010113          	addi	sp,sp,48
 1000ce4:	00008067          	ret

0000000001000ce8 <print_uart_byte>:
 1000ce8:	fe010113          	addi	sp,sp,-32
 1000cec:	00810593          	addi	a1,sp,8
 1000cf0:	00113c23          	sd	ra,24(sp)
 1000cf4:	f09ff0ef          	jal	ra,1000bfc <bin_to_hex>
 1000cf8:	00814503          	lbu	a0,8(sp)
 1000cfc:	e6dff0ef          	jal	ra,1000b68 <write_serial>
 1000d00:	00914503          	lbu	a0,9(sp)
 1000d04:	e65ff0ef          	jal	ra,1000b68 <write_serial>
 1000d08:	01813083          	ld	ra,24(sp)
 1000d0c:	02010113          	addi	sp,sp,32
 1000d10:	00008067          	ret

Disassembly of section .text.startup:

0000000001000d14 <main>:
 1000d14:	0001c5b7          	lui	a1,0x1c
 1000d18:	017d8537          	lui	a0,0x17d8
 1000d1c:	ff010113          	addi	sp,sp,-16
 1000d20:	20058593          	addi	a1,a1,512 # 1c200 <_start-0xfe3e00>
 1000d24:	84050513          	addi	a0,a0,-1984 # 17d7840 <bin_to_hex_table+0x7d69d0>
 1000d28:	00113423          	sd	ra,8(sp)
 1000d2c:	e55ff0ef          	jal	ra,1000b80 <init_uart>
 1000d30:	00000517          	auipc	a0,0x0
 1000d34:	0a050513          	addi	a0,a0,160 # 1000dd0 <main+0xbc>
 1000d38:	e91ff0ef          	jal	ra,1000bc8 <print_uart>
 1000d3c:	00000517          	auipc	a0,0x0
 1000d40:	0b450513          	addi	a0,a0,180 # 1000df0 <main+0xdc>
 1000d44:	e85ff0ef          	jal	ra,1000bc8 <print_uart>
 1000d48:	00000517          	auipc	a0,0x0
 1000d4c:	0b850513          	addi	a0,a0,184 # 1000e00 <main+0xec>
 1000d50:	e79ff0ef          	jal	ra,1000bc8 <print_uart>
 1000d54:	00000517          	auipc	a0,0x0
 1000d58:	0b450513          	addi	a0,a0,180 # 1000e08 <main+0xf4>
 1000d5c:	e6dff0ef          	jal	ra,1000bc8 <print_uart>
 1000d60:	00000517          	auipc	a0,0x0
 1000d64:	0a050513          	addi	a0,a0,160 # 1000e00 <main+0xec>
 1000d68:	e61ff0ef          	jal	ra,1000bc8 <print_uart>
 1000d6c:	00000517          	auipc	a0,0x0
 1000d70:	0ac50513          	addi	a0,a0,172 # 1000e18 <main+0x104>
 1000d74:	e55ff0ef          	jal	ra,1000bc8 <print_uart>
 1000d78:	00000517          	auipc	a0,0x0
 1000d7c:	0b850513          	addi	a0,a0,184 # 1000e30 <main+0x11c>
 1000d80:	e49ff0ef          	jal	ra,1000bc8 <print_uart>
 1000d84:	00000517          	auipc	a0,0x0
 1000d88:	0c450513          	addi	a0,a0,196 # 1000e48 <main+0x134>
 1000d8c:	e3dff0ef          	jal	ra,1000bc8 <print_uart>
 1000d90:	010017b7          	lui	a5,0x1001
 1000d94:	6efff5b7          	lui	a1,0x6efff
 1000d98:	0100d737          	lui	a4,0x100d
 1000d9c:	0007b603          	ld	a2,0(a5) # 1001000 <bin_to_hex_table+0x190>
 1000da0:	00f586b3          	add	a3,a1,a5
 1000da4:	00878793          	addi	a5,a5,8
 1000da8:	00c6b023          	sd	a2,0(a3)
 1000dac:	fee798e3          	bne	a5,a4,1000d9c <main+0x88>
 1000db0:	700007b7          	lui	a5,0x70000
 1000db4:	0000100f          	fence.i
 1000db8:	f1402573          	csrr	a0,mhartid
 1000dbc:	fffff597          	auipc	a1,0xfffff
 1000dc0:	27458593          	addi	a1,a1,628 # 1000030 <device_tree>
 1000dc4:	00078067          	jr	a5 # 70000000 <bin_to_hex_table+0x6efff190>
 1000dc8:	0000006f          	j	1000dc8 <main+0xb4>
