
bin/fcvt:	file format elf32-littleriscv


Disassembly of section .l1:

00000000 <atomic_barrier>:
       0: 00 00        	<unknown>
       2: 00 00        	<unknown>

Disassembly of section .text:

80010000 <_start>:
80010000: 97 11 00 00  	auipc	gp, 1
80010004: 93 81 81 77  	addi	gp, gp, 1912
80010008: 6f 00 40 00  	j	0x8001000c <reset_vector>

8001000c <reset_vector>:
8001000c: 17 01 ff bf  	auipc	sp, 786416
80010010: 13 01 c1 ff  	addi	sp, sp, -4
80010014: 03 21 01 00  	lw	sp, 0(sp)
80010018: 73 25 40 f1  	csrr	a0, mhartid

8001001c <.Lpcrel_hi1>:
8001001c: 97 02 ff bf  	auipc	t0, 786416
80010020: 83 a2 42 02  	lw	t0, 36(t0)
80010024: 33 05 55 40  	sub	a0, a0, t0
80010028: 93 12 35 00  	slli	t0, a0, 3
8001002c: 33 01 51 40  	sub	sp, sp, t0
80010030: 93 92 62 00  	slli	t0, t0, 6
80010034: 33 01 51 40  	sub	sp, sp, t0
80010038: 13 02 01 00  	mv	tp, sp
8001003c: 93 02 10 00  	addi	t0, zero, 1
80010040: 93 92 92 00  	slli	t0, t0, 9
80010044: 33 02 52 40  	sub	tp, tp, t0

80010048 <.Lpcrel_hi2>:
80010048: 97 02 ff bf  	auipc	t0, 786416
8001004c: 93 82 82 fc  	addi	t0, t0, -56
80010050: 83 a5 02 00  	lw	a1, 0(t0)
80010054: 97 00 00 00  	auipc	ra, 0
80010058: e7 80 c0 03  	jalr	60(ra)
8001005c: 13 15 15 00  	slli	a0, a0, 1
80010060: 13 65 15 00  	ori	a0, a0, 1
80010064: 6f 00 00 01  	j	0x80010074 <eoc>

80010068 <fail>:
80010068: 93 02 f0 ff  	addi	t0, zero, -1
8001006c: 33 45 55 00  	xor	a0, a0, t0
80010070: 6f 00 40 00  	j	0x80010074 <eoc>

80010074 <eoc>:
80010074: f3 22 40 f1  	csrr	t0, mhartid
80010078: 63 98 02 00  	bnez	t0, 0x80010088 <halt>

8001007c <.Lpcrel_hi3>:
8001007c: 97 02 ff bf  	auipc	t0, 786416
80010080: 93 82 42 fa  	addi	t0, t0, -92
80010084: 23 a0 a2 00  	sw	a0, 0(t0)

80010088 <halt>:
80010088: 73 00 50 10  	wfi	
8001008c: 6f f0 df ff  	j	0x80010088 <halt>

80010090 <main>:
80010090: 13 01 01 fb  	addi	sp, sp, -80
80010094: 23 26 11 04  	sw	ra, 76(sp)
80010098: 23 24 81 04  	sw	s0, 72(sp)
8001009c: 13 04 01 05  	addi	s0, sp, 80
800100a0: 13 05 00 00  	mv	a0, zero
800100a4: 23 2a a4 fe  	sw	a0, -12(s0)
800100a8: b7 f5 48 40  	lui	a1, 263311
800100ac: 93 85 35 5c  	addi	a1, a1, 1475
800100b0: 23 28 b4 fe  	sw	a1, -16(s0)
800100b4: b7 e5 f9 3f  	lui	a1, 262046
800100b8: 93 85 35 35  	addi	a1, a1, 851
800100bc: 23 26 b4 fe  	sw	a1, -20(s0)
800100c0: b7 e5 ce f7  	lui	a1, 1015022
800100c4: 93 85 75 91  	addi	a1, a1, -1769
800100c8: 23 24 b4 fe  	sw	a1, -24(s0)
800100cc: 13 06 a0 02  	addi	a2, zero, 42
800100d0: 23 22 c4 fe  	sw	a2, -28(s0)
800100d4: 93 05 60 fd  	addi	a1, zero, -42
800100d8: 23 20 b4 fe  	sw	a1, -32(s0)
800100dc: 23 2e a4 fc  	sw	a0, -36(s0)
800100e0: 23 2c c4 fc  	sw	a2, -40(s0)
800100e4: 13 06 f0 ff  	addi	a2, zero, -1
800100e8: 23 2a c4 fc  	sw	a2, -44(s0)
800100ec: 23 28 b4 fc  	sw	a1, -48(s0)
800100f0: 23 26 a4 fc  	sw	a0, -52(s0)
800100f4: 07 20 04 ff  	flw	ft0, -16(s0)
800100f8: 53 15 00 c0  	fcvt.w.s	a0, ft0, rtz
800100fc: 13 05 d5 ff  	addi	a0, a0, -3
80010100: b3 35 a0 00  	snez	a1, a0
80010104: 03 25 c4 fc  	lw	a0, -52(s0)
80010108: 33 05 b5 00  	add	a0, a0, a1
8001010c: 23 26 a4 fc  	sw	a0, -52(s0)
80010110: 07 30 84 fe  	fld	ft0, -24(s0)
80010114: 53 15 00 c2  	fcvt.w.d	a0, ft0, rtz
80010118: 13 05 f5 ff  	addi	a0, a0, -1
8001011c: b3 35 a0 00  	snez	a1, a0
80010120: 03 25 c4 fc  	lw	a0, -52(s0)
80010124: 33 05 b5 00  	add	a0, a0, a1
80010128: 23 26 a4 fc  	sw	a0, -52(s0)
8001012c: 07 20 04 ff  	flw	ft0, -16(s0)
80010130: 53 10 00 20  	fneg.s	ft0, ft0
80010134: 53 15 00 c0  	fcvt.w.s	a0, ft0, rtz
80010138: 13 05 35 00  	addi	a0, a0, 3
8001013c: b3 35 a0 00  	snez	a1, a0
80010140: 03 25 c4 fc  	lw	a0, -52(s0)
80010144: 33 05 b5 00  	add	a0, a0, a1
80010148: 23 26 a4 fc  	sw	a0, -52(s0)
8001014c: 07 30 84 fe  	fld	ft0, -24(s0)
80010150: 53 10 00 22  	fneg.d	ft0, ft0
80010154: 53 15 00 c2  	fcvt.w.d	a0, ft0, rtz
80010158: 13 05 15 00  	addi	a0, a0, 1
8001015c: b3 35 a0 00  	snez	a1, a0
80010160: 03 25 c4 fc  	lw	a0, -52(s0)
80010164: 33 05 b5 00  	add	a0, a0, a1
80010168: 23 26 a4 fc  	sw	a0, -52(s0)
8001016c: 07 20 04 ff  	flw	ft0, -16(s0)
80010170: 53 15 10 c0  	fcvt.wu.s	a0, ft0, rtz
80010174: 13 05 d5 ff  	addi	a0, a0, -3
80010178: b3 35 a0 00  	snez	a1, a0
8001017c: 03 25 c4 fc  	lw	a0, -52(s0)
80010180: 33 05 b5 00  	add	a0, a0, a1
80010184: 23 26 a4 fc  	sw	a0, -52(s0)
80010188: 07 30 84 fe  	fld	ft0, -24(s0)
8001018c: 53 15 10 c2  	fcvt.wu.d	a0, ft0, rtz
80010190: 13 05 f5 ff  	addi	a0, a0, -1
80010194: b3 35 a0 00  	snez	a1, a0
80010198: 03 25 c4 fc  	lw	a0, -52(s0)
8001019c: 33 05 b5 00  	add	a0, a0, a1
800101a0: 23 26 a4 fc  	sw	a0, -52(s0)
800101a4: 03 25 04 fe  	lw	a0, -32(s0)
800101a8: 53 00 05 d2  	fcvt.d.w	ft0, a0

800101ac <.LBB0_1>:
800101ac: 17 15 00 00  	auipc	a0, 1
800101b0: 13 05 c5 dc  	addi	a0, a0, -564
800101b4: 87 30 05 00  	fld	ft1, 0(a0)
800101b8: 27 3c 14 fa  	fsd	ft1, -72(s0)
800101bc: 53 25 10 a2  	feq.d	a0, ft0, ft1
800101c0: 93 45 15 00  	xori	a1, a0, 1
800101c4: 03 25 c4 fc  	lw	a0, -52(s0)
800101c8: 33 05 b5 00  	add	a0, a0, a1
800101cc: 23 26 a4 fc  	sw	a0, -52(s0)
800101d0: 03 25 44 fe  	lw	a0, -28(s0)
800101d4: 53 00 15 d2  	fcvt.d.wu	ft0, a0

800101d8 <.LBB0_2>:
800101d8: 17 15 00 00  	auipc	a0, 1
800101dc: 13 05 85 da  	addi	a0, a0, -600
800101e0: 87 30 05 00  	fld	ft1, 0(a0)
800101e4: 27 30 14 fc  	fsd	ft1, -64(s0)
800101e8: 53 25 10 a2  	feq.d	a0, ft0, ft1
800101ec: 93 45 15 00  	xori	a1, a0, 1
800101f0: 03 25 c4 fc  	lw	a0, -52(s0)
800101f4: 33 05 b5 00  	add	a0, a0, a1
800101f8: 23 26 a4 fc  	sw	a0, -52(s0)
800101fc: 03 25 04 fe  	lw	a0, -32(s0)
80010200: 53 70 05 d0  	fcvt.s.w	ft0, a0

80010204 <.LBB0_3>:
80010204: 17 15 00 00  	auipc	a0, 1
80010208: 13 05 45 d8  	addi	a0, a0, -636
8001020c: 87 20 05 00  	flw	ft1, 0(a0)
80010210: 27 28 14 fa  	fsw	ft1, -80(s0)
80010214: 53 25 10 a0  	feq.s	a0, ft0, ft1
80010218: 93 45 15 00  	xori	a1, a0, 1
8001021c: 03 25 c4 fc  	lw	a0, -52(s0)
80010220: 33 05 b5 00  	add	a0, a0, a1
80010224: 23 26 a4 fc  	sw	a0, -52(s0)
80010228: 03 25 44 fe  	lw	a0, -28(s0)
8001022c: 53 70 15 d0  	fcvt.s.wu	ft0, a0

80010230 <.LBB0_4>:
80010230: 17 15 00 00  	auipc	a0, 1
80010234: 13 05 c5 d5  	addi	a0, a0, -676
80010238: 87 20 05 00  	flw	ft1, 0(a0)
8001023c: 27 2a 14 fa  	fsw	ft1, -76(s0)
80010240: 53 25 10 a0  	feq.s	a0, ft0, ft1
80010244: 93 45 15 00  	xori	a1, a0, 1
80010248: 03 25 c4 fc  	lw	a0, -52(s0)
8001024c: 33 05 b5 00  	add	a0, a0, a1
80010250: 23 26 a4 fc  	sw	a0, -52(s0)
80010254: 07 25 04 ff  	flw	fa0, -16(s0)
80010258: 97 00 00 00  	auipc	ra, 0
8001025c: e7 80 80 20  	jalr	520(ra)
80010260: 13 45 35 00  	xori	a0, a0, 3
80010264: 33 65 b5 00  	or	a0, a0, a1
80010268: b3 35 a0 00  	snez	a1, a0
8001026c: 03 25 c4 fc  	lw	a0, -52(s0)
80010270: 33 05 b5 00  	add	a0, a0, a1
80010274: 23 26 a4 fc  	sw	a0, -52(s0)
80010278: 07 25 04 ff  	flw	fa0, -16(s0)
8001027c: 97 00 00 00  	auipc	ra, 0
80010280: e7 80 80 2e  	jalr	744(ra)
80010284: 13 45 35 00  	xori	a0, a0, 3
80010288: 33 65 b5 00  	or	a0, a0, a1
8001028c: b3 35 a0 00  	snez	a1, a0
80010290: 03 25 c4 fc  	lw	a0, -52(s0)
80010294: 33 05 b5 00  	add	a0, a0, a1
80010298: 23 26 a4 fc  	sw	a0, -52(s0)
8001029c: 03 25 04 fd  	lw	a0, -48(s0)
800102a0: 83 25 44 fd  	lw	a1, -44(s0)
800102a4: 97 00 00 00  	auipc	ra, 0
800102a8: e7 80 80 3c  	jalr	968(ra)
800102ac: 07 20 04 fb  	flw	ft0, -80(s0)
800102b0: 53 25 05 a0  	feq.s	a0, fa0, ft0
800102b4: 93 45 15 00  	xori	a1, a0, 1
800102b8: 03 25 c4 fc  	lw	a0, -52(s0)
800102bc: 33 05 b5 00  	add	a0, a0, a1
800102c0: 23 26 a4 fc  	sw	a0, -52(s0)
800102c4: 03 25 84 fd  	lw	a0, -40(s0)
800102c8: 83 25 c4 fd  	lw	a1, -36(s0)
800102cc: 97 10 00 00  	auipc	ra, 1
800102d0: e7 80 80 87  	jalr	-1928(ra)
800102d4: 07 20 44 fb  	flw	ft0, -76(s0)
800102d8: 53 25 05 a0  	feq.s	a0, fa0, ft0
800102dc: 93 45 15 00  	xori	a1, a0, 1
800102e0: 03 25 c4 fc  	lw	a0, -52(s0)
800102e4: 33 05 b5 00  	add	a0, a0, a1
800102e8: 23 26 a4 fc  	sw	a0, -52(s0)
800102ec: 07 35 84 fe  	fld	fa0, -24(s0)
800102f0: 97 00 00 00  	auipc	ra, 0
800102f4: e7 80 00 0f  	jalr	240(ra)
800102f8: 13 45 15 00  	xori	a0, a0, 1
800102fc: 33 65 b5 00  	or	a0, a0, a1
80010300: b3 35 a0 00  	snez	a1, a0
80010304: 03 25 c4 fc  	lw	a0, -52(s0)
80010308: 33 05 b5 00  	add	a0, a0, a1
8001030c: 23 26 a4 fc  	sw	a0, -52(s0)
80010310: 07 35 84 fe  	fld	fa0, -24(s0)
80010314: 97 00 00 00  	auipc	ra, 0
80010318: e7 80 c0 1c  	jalr	460(ra)
8001031c: 13 45 15 00  	xori	a0, a0, 1
80010320: 33 65 b5 00  	or	a0, a0, a1
80010324: b3 35 a0 00  	snez	a1, a0
80010328: 03 25 c4 fc  	lw	a0, -52(s0)
8001032c: 33 05 b5 00  	add	a0, a0, a1
80010330: 23 26 a4 fc  	sw	a0, -52(s0)
80010334: 03 25 04 fd  	lw	a0, -48(s0)
80010338: 83 25 44 fd  	lw	a1, -44(s0)
8001033c: 97 00 00 00  	auipc	ra, 0
80010340: e7 80 80 2b  	jalr	696(ra)
80010344: 07 30 84 fb  	fld	ft0, -72(s0)
80010348: 53 25 05 a2  	feq.d	a0, fa0, ft0
8001034c: 93 45 15 00  	xori	a1, a0, 1
80010350: 03 25 c4 fc  	lw	a0, -52(s0)
80010354: 33 05 b5 00  	add	a0, a0, a1
80010358: 23 26 a4 fc  	sw	a0, -52(s0)
8001035c: 03 25 84 fd  	lw	a0, -40(s0)
80010360: 83 25 c4 fd  	lw	a1, -36(s0)
80010364: 97 00 00 00  	auipc	ra, 0
80010368: e7 80 40 75  	jalr	1876(ra)
8001036c: 07 30 04 fc  	fld	ft0, -64(s0)
80010370: 53 25 05 a2  	feq.d	a0, fa0, ft0
80010374: 93 45 15 00  	xori	a1, a0, 1
80010378: 03 25 c4 fc  	lw	a0, -52(s0)
8001037c: 33 05 b5 00  	add	a0, a0, a1
80010380: 23 26 a4 fc  	sw	a0, -52(s0)
80010384: 07 20 04 ff  	flw	ft0, -16(s0)
80010388: 53 00 00 42  	fcvt.d.s	ft0, ft0
8001038c: 53 15 10 c2  	fcvt.wu.d	a0, ft0, rtz
80010390: 13 05 d5 ff  	addi	a0, a0, -3
80010394: b3 35 a0 00  	snez	a1, a0
80010398: 03 25 c4 fc  	lw	a0, -52(s0)
8001039c: 33 05 b5 00  	add	a0, a0, a1
800103a0: 23 26 a4 fc  	sw	a0, -52(s0)
800103a4: 07 30 84 fe  	fld	ft0, -24(s0)
800103a8: 53 70 10 40  	fcvt.s.d	ft0, ft0

800103ac <.LBB0_5>:
800103ac: 17 15 00 00  	auipc	a0, 1
800103b0: 13 05 45 be  	addi	a0, a0, -1052
800103b4: 87 20 05 00  	flw	ft1, 0(a0)
800103b8: 53 25 10 a0  	feq.s	a0, ft0, ft1
800103bc: 93 45 15 00  	xori	a1, a0, 1
800103c0: 03 25 c4 fc  	lw	a0, -52(s0)
800103c4: 33 05 b5 00  	add	a0, a0, a1
800103c8: 23 26 a4 fc  	sw	a0, -52(s0)
800103cc: 03 25 c4 fc  	lw	a0, -52(s0)
800103d0: 03 24 81 04  	lw	s0, 72(sp)
800103d4: 83 20 c1 04  	lw	ra, 76(sp)
800103d8: 13 01 01 05  	addi	sp, sp, 80
800103dc: 67 80 00 00  	ret

800103e0 <__fixdfdi>:
800103e0: 13 01 01 fe  	addi	sp, sp, -32
800103e4: 23 2e 11 00  	sw	ra, 28(sp)
800103e8: 27 34 a1 00  	fsd	fa0, 8(sp)
800103ec: 07 30 81 00  	fld	ft0, 8(sp)
800103f0: d3 00 00 d2  	fcvt.d.w	ft1, zero
800103f4: 53 15 10 a2  	flt.d	a0, ft0, ft1
800103f8: 63 0e 05 02  	beqz	a0, 0x80010434 <.LBB0_2>
800103fc: 6f 00 40 00  	j	0x80010400 <.LBB0_1>

80010400 <.LBB0_1>:
80010400: 07 30 81 00  	fld	ft0, 8(sp)
80010404: 53 15 00 22  	fneg.d	fa0, ft0
80010408: 97 00 00 00  	auipc	ra, 0
8001040c: e7 80 80 0d  	jalr	216(ra)
80010410: 13 06 05 00  	mv	a2, a0
80010414: 33 35 c0 00  	snez	a0, a2
80010418: 33 85 a5 00  	add	a0, a1, a0
8001041c: 93 05 00 00  	mv	a1, zero
80010420: 33 85 a5 40  	sub	a0, a1, a0
80010424: b3 85 c5 40  	sub	a1, a1, a2
80010428: 23 28 b1 00  	sw	a1, 16(sp)
8001042c: 23 2a a1 00  	sw	a0, 20(sp)
80010430: 6f 00 c0 01  	j	0x8001044c <.LBB0_3>

80010434 <.LBB0_2>:
80010434: 07 35 81 00  	fld	fa0, 8(sp)
80010438: 97 00 00 00  	auipc	ra, 0
8001043c: e7 80 80 0a  	jalr	168(ra)
80010440: 23 2a b1 00  	sw	a1, 20(sp)
80010444: 23 28 a1 00  	sw	a0, 16(sp)
80010448: 6f 00 40 00  	j	0x8001044c <.LBB0_3>

8001044c <.LBB0_3>:
8001044c: 03 25 01 01  	lw	a0, 16(sp)
80010450: 83 25 41 01  	lw	a1, 20(sp)
80010454: 83 20 c1 01  	lw	ra, 28(sp)
80010458: 13 01 01 02  	addi	sp, sp, 32
8001045c: 67 80 00 00  	ret

80010460 <__fixsfdi>:
80010460: 13 01 01 fe  	addi	sp, sp, -32
80010464: 23 2e 11 00  	sw	ra, 28(sp)
80010468: 27 26 a1 00  	fsw	fa0, 12(sp)
8001046c: 07 20 c1 00  	flw	ft0, 12(sp)
80010470: d3 00 00 f0  	fmv.w.x	ft1, zero
80010474: 53 15 10 a0  	flt.s	a0, ft0, ft1
80010478: 63 0e 05 02  	beqz	a0, 0x800104b4 <.LBB0_2>
8001047c: 6f 00 40 00  	j	0x80010480 <.LBB0_1>

80010480 <.LBB0_1>:
80010480: 07 20 c1 00  	flw	ft0, 12(sp)
80010484: 53 15 00 20  	fneg.s	fa0, ft0
80010488: 97 00 00 00  	auipc	ra, 0
8001048c: e7 80 c0 0d  	jalr	220(ra)
80010490: 13 06 05 00  	mv	a2, a0
80010494: 33 35 c0 00  	snez	a0, a2
80010498: 33 85 a5 00  	add	a0, a1, a0
8001049c: 93 05 00 00  	mv	a1, zero
800104a0: 33 85 a5 40  	sub	a0, a1, a0
800104a4: b3 85 c5 40  	sub	a1, a1, a2
800104a8: 23 28 b1 00  	sw	a1, 16(sp)
800104ac: 23 2a a1 00  	sw	a0, 20(sp)
800104b0: 6f 00 c0 01  	j	0x800104cc <.LBB0_3>

800104b4 <.LBB0_2>:
800104b4: 07 25 c1 00  	flw	fa0, 12(sp)
800104b8: 97 00 00 00  	auipc	ra, 0
800104bc: e7 80 c0 0a  	jalr	172(ra)
800104c0: 23 2a b1 00  	sw	a1, 20(sp)
800104c4: 23 28 a1 00  	sw	a0, 16(sp)
800104c8: 6f 00 40 00  	j	0x800104cc <.LBB0_3>

800104cc <.LBB0_3>:
800104cc: 03 25 01 01  	lw	a0, 16(sp)
800104d0: 83 25 41 01  	lw	a1, 20(sp)
800104d4: 83 20 c1 01  	lw	ra, 28(sp)
800104d8: 13 01 01 02  	addi	sp, sp, 32
800104dc: 67 80 00 00  	ret

800104e0 <__fixunsdfdi>:
800104e0: 13 01 01 fe  	addi	sp, sp, -32
800104e4: 27 38 a1 00  	fsd	fa0, 16(sp)
800104e8: 07 30 01 01  	fld	ft0, 16(sp)
800104ec: d3 00 00 d2  	fcvt.d.w	ft1, zero
800104f0: 53 05 10 a2  	fle.d	a0, ft0, ft1
800104f4: 63 0c 05 00  	beqz	a0, 0x8001050c <.LBB0_2>
800104f8: 6f 00 40 00  	j	0x800104fc <.LBB0_1>

800104fc <.LBB0_1>:
800104fc: 13 05 00 00  	mv	a0, zero
80010500: 23 2e a1 00  	sw	a0, 28(sp)
80010504: 23 2c a1 00  	sw	a0, 24(sp)
80010508: 6f 00 c0 04  	j	0x80010554 <.LBB0_3>

8001050c <.LBB0_2>:
8001050c: 07 30 01 01  	fld	ft0, 16(sp)
80010510: 37 15 01 80  	lui	a0, 524305
80010514: 07 31 85 f9  	fld	ft2, -104(a0)
80010518: 53 70 20 1a  	fdiv.d	ft0, ft0, ft2
8001051c: 53 15 10 c2  	fcvt.wu.d	a0, ft0, rtz
80010520: 23 26 a1 00  	sw	a0, 12(sp)
80010524: 07 30 01 01  	fld	ft0, 16(sp)
80010528: 03 25 c1 00  	lw	a0, 12(sp)
8001052c: d3 00 15 d2  	fcvt.d.wu	ft1, a0
80010530: d3 f0 20 12  	fmul.d	ft1, ft1, ft2
80010534: 53 70 10 0a  	fsub.d	ft0, ft0, ft1
80010538: 53 15 10 c2  	fcvt.wu.d	a0, ft0, rtz
8001053c: 23 24 a1 00  	sw	a0, 8(sp)
80010540: 83 25 c1 00  	lw	a1, 12(sp)
80010544: 03 25 81 00  	lw	a0, 8(sp)
80010548: 23 2e b1 00  	sw	a1, 28(sp)
8001054c: 23 2c a1 00  	sw	a0, 24(sp)
80010550: 6f 00 40 00  	j	0x80010554 <.LBB0_3>

80010554 <.LBB0_3>:
80010554: 03 25 81 01  	lw	a0, 24(sp)
80010558: 83 25 c1 01  	lw	a1, 28(sp)
8001055c: 13 01 01 02  	addi	sp, sp, 32
80010560: 67 80 00 00  	ret

80010564 <__fixunssfdi>:
80010564: 13 01 01 fe  	addi	sp, sp, -32
80010568: 27 2a a1 00  	fsw	fa0, 20(sp)
8001056c: 07 20 41 01  	flw	ft0, 20(sp)
80010570: d3 00 00 f0  	fmv.w.x	ft1, zero
80010574: 53 05 10 a0  	fle.s	a0, ft0, ft1
80010578: 63 0c 05 00  	beqz	a0, 0x80010590 <.LBB0_2>
8001057c: 6f 00 40 00  	j	0x80010580 <.LBB0_1>

80010580 <.LBB0_1>:
80010580: 13 05 00 00  	mv	a0, zero
80010584: 23 2e a1 00  	sw	a0, 28(sp)
80010588: 23 2c a1 00  	sw	a0, 24(sp)
8001058c: 6f 00 80 05  	j	0x800105e4 <.LBB0_3>

80010590 <.LBB0_2>:
80010590: 07 20 41 01  	flw	ft0, 20(sp)
80010594: 53 00 00 42  	fcvt.d.s	ft0, ft0
80010598: 27 34 01 00  	fsd	ft0, 8(sp)
8001059c: 07 30 81 00  	fld	ft0, 8(sp)
800105a0: 37 15 01 80  	lui	a0, 524305
800105a4: 07 31 05 fa  	fld	ft2, -96(a0)
800105a8: 53 70 20 1a  	fdiv.d	ft0, ft0, ft2
800105ac: 53 15 10 c2  	fcvt.wu.d	a0, ft0, rtz
800105b0: 23 22 a1 00  	sw	a0, 4(sp)
800105b4: 07 30 81 00  	fld	ft0, 8(sp)
800105b8: 03 25 41 00  	lw	a0, 4(sp)
800105bc: d3 00 15 d2  	fcvt.d.wu	ft1, a0
800105c0: d3 f0 20 12  	fmul.d	ft1, ft1, ft2
800105c4: 53 70 10 0a  	fsub.d	ft0, ft0, ft1
800105c8: 53 15 10 c2  	fcvt.wu.d	a0, ft0, rtz
800105cc: 23 20 a1 00  	sw	a0, 0(sp)
800105d0: 83 25 41 00  	lw	a1, 4(sp)
800105d4: 03 25 01 00  	lw	a0, 0(sp)
800105d8: 23 2e b1 00  	sw	a1, 28(sp)
800105dc: 23 2c a1 00  	sw	a0, 24(sp)
800105e0: 6f 00 40 00  	j	0x800105e4 <.LBB0_3>

800105e4 <.LBB0_3>:
800105e4: 03 25 81 01  	lw	a0, 24(sp)
800105e8: 83 25 c1 01  	lw	a1, 28(sp)
800105ec: 13 01 01 02  	addi	sp, sp, 32
800105f0: 67 80 00 00  	ret

800105f4 <__floatdidf>:
800105f4: 13 01 01 fe  	addi	sp, sp, -32
800105f8: 23 2e b1 00  	sw	a1, 28(sp)
800105fc: 23 2c a1 00  	sw	a0, 24(sp)
80010600: 37 15 01 80  	lui	a0, 524305
80010604: 83 25 c5 f5  	lw	a1, -164(a0)
80010608: 23 2a b1 00  	sw	a1, 20(sp)
8001060c: 03 25 85 f5  	lw	a0, -168(a0)
80010610: 23 28 a1 00  	sw	a0, 16(sp)
80010614: 03 25 c1 01  	lw	a0, 28(sp)
80010618: 53 00 05 d2  	fcvt.d.w	ft0, a0
8001061c: 37 15 01 80  	lui	a0, 524305
80010620: 87 30 85 fa  	fld	ft1, -88(a0)
80010624: 53 70 10 12  	fmul.d	ft0, ft0, ft1
80010628: 27 34 01 00  	fsd	ft0, 8(sp)
8001062c: 03 26 81 01  	lw	a2, 24(sp)
80010630: 83 25 41 01  	lw	a1, 20(sp)
80010634: 03 25 01 01  	lw	a0, 16(sp)
80010638: 33 65 c5 00  	or	a0, a0, a2
8001063c: 23 2a b1 00  	sw	a1, 20(sp)
80010640: 23 28 a1 00  	sw	a0, 16(sp)
80010644: 07 30 81 00  	fld	ft0, 8(sp)
80010648: 37 15 01 80  	lui	a0, 524305
8001064c: 87 30 05 fb  	fld	ft1, -80(a0)
80010650: 53 70 10 02  	fadd.d	ft0, ft0, ft1
80010654: 87 30 01 01  	fld	ft1, 16(sp)
80010658: 53 70 10 02  	fadd.d	ft0, ft0, ft1
8001065c: 27 30 01 00  	fsd	ft0, 0(sp)
80010660: 07 35 01 00  	fld	fa0, 0(sp)
80010664: 13 01 01 02  	addi	sp, sp, 32
80010668: 67 80 00 00  	ret

8001066c <__floatdisf>:
8001066c: 13 01 01 f8  	addi	sp, sp, -128
80010670: 23 2a b1 06  	sw	a1, 116(sp)
80010674: 23 28 a1 06  	sw	a0, 112(sp)
80010678: 83 25 41 07  	lw	a1, 116(sp)
8001067c: 03 25 01 07  	lw	a0, 112(sp)
80010680: 33 65 b5 00  	or	a0, a0, a1
80010684: 93 05 00 00  	mv	a1, zero
80010688: 63 1a b5 00  	bne	a0, a1, 0x8001069c <.LBB0_2>
8001068c: 6f 00 40 00  	j	0x80010690 <.LBB0_1>

80010690 <.LBB0_1>:
80010690: 13 05 00 00  	mv	a0, zero
80010694: 23 2e a1 06  	sw	a0, 124(sp)
80010698: 6f 00 40 41  	j	0x80010aac <.LBB0_21>

8001069c <.LBB0_2>:
8001069c: 13 05 00 04  	addi	a0, zero, 64
800106a0: 23 22 a1 04  	sw	a0, 68(sp)
800106a4: 23 26 a1 06  	sw	a0, 108(sp)
800106a8: 03 25 41 07  	lw	a0, 116(sp)
800106ac: 13 55 f5 41  	srai	a0, a0, 31
800106b0: 23 22 a1 06  	sw	a0, 100(sp)
800106b4: 23 20 a1 06  	sw	a0, 96(sp)
800106b8: 83 25 01 07  	lw	a1, 112(sp)
800106bc: 03 25 41 07  	lw	a0, 116(sp)
800106c0: 03 26 01 06  	lw	a2, 96(sp)
800106c4: 03 27 41 06  	lw	a4, 100(sp)
800106c8: 33 45 e5 00  	xor	a0, a0, a4
800106cc: b3 c5 c5 00  	xor	a1, a1, a2
800106d0: b3 b6 c5 00  	sltu	a3, a1, a2
800106d4: 33 05 e5 40  	sub	a0, a0, a4
800106d8: 33 05 d5 40  	sub	a0, a0, a3
800106dc: b3 85 c5 40  	sub	a1, a1, a2
800106e0: 23 28 b1 06  	sw	a1, 112(sp)
800106e4: 23 2a a1 06  	sw	a0, 116(sp)
800106e8: 83 25 01 07  	lw	a1, 112(sp)
800106ec: 03 25 41 07  	lw	a0, 116(sp)
800106f0: 13 56 15 00  	srli	a2, a0, 1
800106f4: 33 66 c5 00  	or	a2, a0, a2
800106f8: 93 56 26 00  	srli	a3, a2, 2
800106fc: 33 66 d6 00  	or	a2, a2, a3
80010700: 93 56 46 00  	srli	a3, a2, 4
80010704: 33 66 d6 00  	or	a2, a2, a3
80010708: 93 56 86 00  	srli	a3, a2, 8
8001070c: 33 66 d6 00  	or	a2, a2, a3
80010710: 93 56 06 01  	srli	a3, a2, 16
80010714: 33 66 d6 00  	or	a2, a2, a3
80010718: 13 46 f6 ff  	not	a2, a2
8001071c: 93 56 16 00  	srli	a3, a2, 1
80010720: 37 57 55 55  	lui	a4, 349525
80010724: 93 08 57 55  	addi	a7, a4, 1365
80010728: b3 f6 16 01  	and	a3, a3, a7
8001072c: b3 06 d6 40  	sub	a3, a2, a3
80010730: 37 36 33 33  	lui	a2, 209715
80010734: 13 08 36 33  	addi	a6, a2, 819
80010738: 33 f6 06 01  	and	a2, a3, a6
8001073c: 93 d6 26 00  	srli	a3, a3, 2
80010740: b3 f6 06 01  	and	a3, a3, a6
80010744: 33 06 d6 00  	add	a2, a2, a3
80010748: 93 56 46 00  	srli	a3, a2, 4
8001074c: 33 06 d6 00  	add	a2, a2, a3
80010750: b7 16 0f 0f  	lui	a3, 61681
80010754: 13 87 f6 f0  	addi	a4, a3, -241
80010758: 33 76 e6 00  	and	a2, a2, a4
8001075c: b7 06 01 01  	lui	a3, 4112
80010760: 93 86 16 10  	addi	a3, a3, 257
80010764: 33 06 d6 02  	mul	a2, a2, a3
80010768: 13 56 86 01  	srli	a2, a2, 24
8001076c: 93 d7 15 00  	srli	a5, a1, 1
80010770: b3 e5 f5 00  	or	a1, a1, a5
80010774: 93 d7 25 00  	srli	a5, a1, 2
80010778: b3 e5 f5 00  	or	a1, a1, a5
8001077c: 93 d7 45 00  	srli	a5, a1, 4
80010780: b3 e5 f5 00  	or	a1, a1, a5
80010784: 93 d7 85 00  	srli	a5, a1, 8
80010788: b3 e5 f5 00  	or	a1, a1, a5
8001078c: 93 d7 05 01  	srli	a5, a1, 16
80010790: b3 e5 f5 00  	or	a1, a1, a5
80010794: 93 c5 f5 ff  	not	a1, a1
80010798: 93 d7 15 00  	srli	a5, a1, 1
8001079c: b3 f7 17 01  	and	a5, a5, a7
800107a0: b3 87 f5 40  	sub	a5, a1, a5
800107a4: b3 f5 07 01  	and	a1, a5, a6
800107a8: 93 d7 27 00  	srli	a5, a5, 2
800107ac: b3 f7 07 01  	and	a5, a5, a6
800107b0: b3 85 f5 00  	add	a1, a1, a5
800107b4: 93 d7 45 00  	srli	a5, a1, 4
800107b8: b3 85 f5 00  	add	a1, a1, a5
800107bc: b3 f5 e5 00  	and	a1, a1, a4
800107c0: b3 85 d5 02  	mul	a1, a1, a3
800107c4: 93 d5 85 01  	srli	a1, a1, 24
800107c8: 93 85 05 02  	addi	a1, a1, 32
800107cc: 23 24 b1 04  	sw	a1, 72(sp)
800107d0: 93 05 00 00  	mv	a1, zero
800107d4: 23 26 c1 04  	sw	a2, 76(sp)
800107d8: 63 16 b5 00  	bne	a0, a1, 0x800107e4 <.LBB0_4>
800107dc: 03 25 81 04  	lw	a0, 72(sp)
800107e0: 23 26 a1 04  	sw	a0, 76(sp)

800107e4 <.LBB0_4>:
800107e4: 03 25 41 04  	lw	a0, 68(sp)
800107e8: 83 25 c1 04  	lw	a1, 76(sp)
800107ec: 33 05 b5 40  	sub	a0, a0, a1
800107f0: 23 2e a1 04  	sw	a0, 92(sp)
800107f4: 03 25 c1 05  	lw	a0, 92(sp)
800107f8: 13 05 f5 ff  	addi	a0, a0, -1
800107fc: 23 2c a1 04  	sw	a0, 88(sp)
80010800: 03 25 c1 05  	lw	a0, 92(sp)
80010804: 93 05 90 01  	addi	a1, zero, 25
80010808: 63 46 b5 1e  	blt	a0, a1, 0x800109f4 <.LBB0_17>
8001080c: 6f 00 40 00  	j	0x80010810 <.LBB0_5>

80010810 <.LBB0_5>:
80010810: 03 25 c1 05  	lw	a0, 92(sp)
80010814: 23 20 a1 04  	sw	a0, 64(sp)
80010818: 93 05 90 01  	addi	a1, zero, 25
8001081c: 63 0c b5 00  	beq	a0, a1, 0x80010834 <.LBB0_7>
80010820: 6f 00 40 00  	j	0x80010824 <.LBB0_6>

80010824 <.LBB0_6>:
80010824: 03 25 01 04  	lw	a0, 64(sp)
80010828: 93 05 a0 01  	addi	a1, zero, 26
8001082c: 63 06 b5 02  	beq	a0, a1, 0x80010858 <.LBB0_8>
80010830: 6f 00 c0 02  	j	0x8001085c <.LBB0_9>

80010834 <.LBB0_7>:
80010834: 03 25 41 07  	lw	a0, 116(sp)
80010838: 83 25 01 07  	lw	a1, 112(sp)
8001083c: 13 d6 f5 01  	srli	a2, a1, 31
80010840: 13 15 15 00  	slli	a0, a0, 1
80010844: 33 65 c5 00  	or	a0, a0, a2
80010848: 93 95 15 00  	slli	a1, a1, 1
8001084c: 23 28 b1 06  	sw	a1, 112(sp)
80010850: 23 2a a1 06  	sw	a0, 116(sp)
80010854: 6f 00 80 10  	j	0x8001095c <.LBB0_14>

80010858 <.LBB0_8>:
80010858: 6f 00 40 10  	j	0x8001095c <.LBB0_14>

8001085c <.LBB0_9>:
8001085c: 83 25 01 07  	lw	a1, 112(sp)
80010860: 23 22 b1 02  	sw	a1, 36(sp)
80010864: 03 26 41 07  	lw	a2, 116(sp)
80010868: 23 24 c1 02  	sw	a2, 40(sp)
8001086c: 03 25 c1 05  	lw	a0, 92(sp)
80010870: 23 26 a1 02  	sw	a0, 44(sp)
80010874: 13 07 65 fe  	addi	a4, a0, -26
80010878: 93 06 90 03  	addi	a3, zero, 57
8001087c: b3 87 a6 40  	sub	a5, a3, a0
80010880: 93 16 16 00  	slli	a3, a2, 1
80010884: b3 96 f6 00  	sll	a3, a3, a5
80010888: b3 d5 e5 00  	srl	a1, a1, a4
8001088c: b3 e6 d5 00  	or	a3, a1, a3
80010890: 13 05 65 fc  	addi	a0, a0, -58
80010894: b3 55 a6 00  	srl	a1, a2, a0
80010898: 23 28 b1 02  	sw	a1, 48(sp)
8001089c: 93 05 00 00  	mv	a1, zero
800108a0: 23 2a b1 02  	sw	a1, 52(sp)
800108a4: 33 56 e6 00  	srl	a2, a2, a4
800108a8: 23 2c d1 02  	sw	a3, 56(sp)
800108ac: 23 2e c1 02  	sw	a2, 60(sp)
800108b0: 63 4a b5 00  	blt	a0, a1, 0x800108c4 <.LBB0_11>
800108b4: 03 25 41 03  	lw	a0, 52(sp)
800108b8: 83 25 01 03  	lw	a1, 48(sp)
800108bc: 23 2c b1 02  	sw	a1, 56(sp)
800108c0: 23 2e a1 02  	sw	a0, 60(sp)

800108c4 <.LBB0_11>:
800108c4: 83 25 41 03  	lw	a1, 52(sp)
800108c8: 03 26 41 02  	lw	a2, 36(sp)
800108cc: 83 27 c1 02  	lw	a5, 44(sp)
800108d0: 03 25 81 02  	lw	a0, 40(sp)
800108d4: 83 26 81 03  	lw	a3, 56(sp)
800108d8: 03 27 c1 03  	lw	a4, 60(sp)
800108dc: 23 28 e1 00  	sw	a4, 16(sp)
800108e0: 23 2a d1 00  	sw	a3, 20(sp)
800108e4: 93 06 a0 05  	addi	a3, zero, 90
800108e8: 33 87 f6 40  	sub	a4, a3, a5
800108ec: 33 15 e5 00  	sll	a0, a0, a4
800108f0: 93 06 f0 01  	addi	a3, zero, 31
800108f4: 33 88 e6 40  	sub	a6, a3, a4
800108f8: 93 56 16 00  	srli	a3, a2, 1
800108fc: b3 d6 06 01  	srl	a3, a3, a6
80010900: b3 66 d5 00  	or	a3, a0, a3
80010904: 13 05 a0 03  	addi	a0, zero, 58
80010908: 33 05 f5 40  	sub	a0, a0, a5
8001090c: b3 17 a6 00  	sll	a5, a2, a0
80010910: 23 2c f1 00  	sw	a5, 24(sp)
80010914: 33 16 e6 00  	sll	a2, a2, a4
80010918: 23 2e d1 00  	sw	a3, 28(sp)
8001091c: 23 20 c1 02  	sw	a2, 32(sp)
80010920: 63 4a b5 00  	blt	a0, a1, 0x80010934 <.LBB0_13>
80010924: 03 25 41 03  	lw	a0, 52(sp)
80010928: 83 25 81 01  	lw	a1, 24(sp)
8001092c: 23 2e b1 00  	sw	a1, 28(sp)
80010930: 23 20 a1 02  	sw	a0, 32(sp)

80010934 <.LBB0_13>:
80010934: 83 25 01 01  	lw	a1, 16(sp)
80010938: 03 25 41 01  	lw	a0, 20(sp)
8001093c: 83 26 c1 01  	lw	a3, 28(sp)
80010940: 03 26 01 02  	lw	a2, 32(sp)
80010944: 33 66 d6 00  	or	a2, a2, a3
80010948: 33 36 c0 00  	snez	a2, a2
8001094c: 33 65 c5 00  	or	a0, a0, a2
80010950: 23 2a b1 06  	sw	a1, 116(sp)
80010954: 23 28 a1 06  	sw	a0, 112(sp)
80010958: 6f 00 40 00  	j	0x8001095c <.LBB0_14>

8001095c <.LBB0_14>:
8001095c: 03 25 01 07  	lw	a0, 112(sp)
80010960: 93 75 45 00  	andi	a1, a0, 4
80010964: 93 d5 25 00  	srli	a1, a1, 2
80010968: 33 65 b5 00  	or	a0, a0, a1
8001096c: 23 28 a1 06  	sw	a0, 112(sp)
80010970: 03 25 41 07  	lw	a0, 116(sp)
80010974: 03 26 01 07  	lw	a2, 112(sp)
80010978: 93 05 16 00  	addi	a1, a2, 1
8001097c: 33 b6 c5 00  	sltu	a2, a1, a2
80010980: 33 05 c5 00  	add	a0, a0, a2
80010984: 23 28 b1 06  	sw	a1, 112(sp)
80010988: 23 2a a1 06  	sw	a0, 116(sp)
8001098c: 03 25 01 07  	lw	a0, 112(sp)
80010990: 83 25 41 07  	lw	a1, 116(sp)
80010994: 13 96 e5 01  	slli	a2, a1, 30
80010998: 13 55 25 00  	srli	a0, a0, 2
8001099c: 33 65 c5 00  	or	a0, a0, a2
800109a0: 93 d5 25 40  	srai	a1, a1, 2
800109a4: 23 2a b1 06  	sw	a1, 116(sp)
800109a8: 23 28 a1 06  	sw	a0, 112(sp)
800109ac: 03 45 31 07  	lbu	a0, 115(sp)
800109b0: 13 75 15 00  	andi	a0, a0, 1
800109b4: 93 05 00 00  	mv	a1, zero
800109b8: 63 0c b5 02  	beq	a0, a1, 0x800109f0 <.LBB0_16>
800109bc: 6f 00 40 00  	j	0x800109c0 <.LBB0_15>

800109c0 <.LBB0_15>:
800109c0: 03 25 01 07  	lw	a0, 112(sp)
800109c4: 83 25 41 07  	lw	a1, 116(sp)
800109c8: 13 96 f5 01  	slli	a2, a1, 31
800109cc: 13 55 15 00  	srli	a0, a0, 1
800109d0: 33 65 c5 00  	or	a0, a0, a2
800109d4: 93 d5 15 40  	srai	a1, a1, 1
800109d8: 23 2a b1 06  	sw	a1, 116(sp)
800109dc: 23 28 a1 06  	sw	a0, 112(sp)
800109e0: 03 25 81 05  	lw	a0, 88(sp)
800109e4: 13 05 15 00  	addi	a0, a0, 1
800109e8: 23 2c a1 04  	sw	a0, 88(sp)
800109ec: 6f 00 40 00  	j	0x800109f0 <.LBB0_16>

800109f0 <.LBB0_16>:
800109f0: 6f 00 c0 07  	j	0x80010a6c <.LBB0_20>

800109f4 <.LBB0_17>:
800109f4: 83 25 c1 05  	lw	a1, 92(sp)
800109f8: 13 05 80 01  	addi	a0, zero, 24
800109fc: 33 07 b5 40  	sub	a4, a0, a1
80010a00: 03 26 01 07  	lw	a2, 112(sp)
80010a04: 03 25 41 07  	lw	a0, 116(sp)
80010a08: 33 15 e5 00  	sll	a0, a0, a4
80010a0c: 93 06 f0 01  	addi	a3, zero, 31
80010a10: b3 87 e6 40  	sub	a5, a3, a4
80010a14: 93 56 16 00  	srli	a3, a2, 1
80010a18: b3 d6 f6 00  	srl	a3, a3, a5
80010a1c: b3 66 d5 00  	or	a3, a0, a3
80010a20: 13 05 80 ff  	addi	a0, zero, -8
80010a24: 33 05 b5 40  	sub	a0, a0, a1
80010a28: b3 15 a6 00  	sll	a1, a2, a0
80010a2c: 23 20 b1 00  	sw	a1, 0(sp)
80010a30: 93 05 00 00  	mv	a1, zero
80010a34: 23 22 b1 00  	sw	a1, 4(sp)
80010a38: 33 16 e6 00  	sll	a2, a2, a4
80010a3c: 23 24 d1 00  	sw	a3, 8(sp)
80010a40: 23 26 c1 00  	sw	a2, 12(sp)
80010a44: 63 4a b5 00  	blt	a0, a1, 0x80010a58 <.LBB0_19>
80010a48: 03 25 41 00  	lw	a0, 4(sp)
80010a4c: 83 25 01 00  	lw	a1, 0(sp)
80010a50: 23 24 b1 00  	sw	a1, 8(sp)
80010a54: 23 26 a1 00  	sw	a0, 12(sp)

80010a58 <.LBB0_19>:
80010a58: 03 25 81 00  	lw	a0, 8(sp)
80010a5c: 83 25 c1 00  	lw	a1, 12(sp)
80010a60: 23 28 b1 06  	sw	a1, 112(sp)
80010a64: 23 2a a1 06  	sw	a0, 116(sp)
80010a68: 6f 00 40 00  	j	0x80010a6c <.LBB0_20>

80010a6c <.LBB0_20>:
80010a6c: 03 25 01 06  	lw	a0, 96(sp)
80010a70: b7 05 00 80  	lui	a1, 524288
80010a74: 33 75 b5 00  	and	a0, a0, a1
80010a78: 83 25 81 05  	lw	a1, 88(sp)
80010a7c: 93 85 f5 07  	addi	a1, a1, 127
80010a80: 93 95 75 01  	slli	a1, a1, 23
80010a84: 33 65 b5 00  	or	a0, a0, a1
80010a88: 83 25 01 07  	lw	a1, 112(sp)
80010a8c: 37 06 80 00  	lui	a2, 2048
80010a90: 13 06 f6 ff  	addi	a2, a2, -1
80010a94: b3 f5 c5 00  	and	a1, a1, a2
80010a98: 33 65 b5 00  	or	a0, a0, a1
80010a9c: 23 28 a1 04  	sw	a0, 80(sp)
80010aa0: 07 20 01 05  	flw	ft0, 80(sp)
80010aa4: 27 2e 01 06  	fsw	ft0, 124(sp)
80010aa8: 6f 00 40 00  	j	0x80010aac <.LBB0_21>

80010aac <.LBB0_21>:
80010aac: 07 25 c1 07  	flw	fa0, 124(sp)
80010ab0: 13 01 01 08  	addi	sp, sp, 128
80010ab4: 67 80 00 00  	ret

80010ab8 <__floatundidf>:
80010ab8: 13 01 01 fe  	addi	sp, sp, -32
80010abc: 23 2e b1 00  	sw	a1, 28(sp)
80010ac0: 23 2c a1 00  	sw	a0, 24(sp)
80010ac4: 37 15 01 80  	lui	a0, 524305
80010ac8: 83 25 45 f5  	lw	a1, -172(a0)
80010acc: 23 2a b1 00  	sw	a1, 20(sp)
80010ad0: 03 25 05 f5  	lw	a0, -176(a0)
80010ad4: 23 28 a1 00  	sw	a0, 16(sp)
80010ad8: 37 15 01 80  	lui	a0, 524305
80010adc: 83 25 c5 f5  	lw	a1, -164(a0)
80010ae0: 23 26 b1 00  	sw	a1, 12(sp)
80010ae4: 03 25 85 f5  	lw	a0, -168(a0)
80010ae8: 23 24 a1 00  	sw	a0, 8(sp)
80010aec: 03 26 c1 01  	lw	a2, 28(sp)
80010af0: 83 25 41 01  	lw	a1, 20(sp)
80010af4: 03 25 01 01  	lw	a0, 16(sp)
80010af8: 33 65 c5 00  	or	a0, a0, a2
80010afc: 23 2a b1 00  	sw	a1, 20(sp)
80010b00: 23 28 a1 00  	sw	a0, 16(sp)
80010b04: 03 26 81 01  	lw	a2, 24(sp)
80010b08: 83 25 c1 00  	lw	a1, 12(sp)
80010b0c: 03 25 81 00  	lw	a0, 8(sp)
80010b10: 33 65 c5 00  	or	a0, a0, a2
80010b14: 23 26 b1 00  	sw	a1, 12(sp)
80010b18: 23 24 a1 00  	sw	a0, 8(sp)
80010b1c: 07 30 01 01  	fld	ft0, 16(sp)
80010b20: 37 15 01 80  	lui	a0, 524305
80010b24: 87 30 85 fb  	fld	ft1, -72(a0)
80010b28: 53 70 10 02  	fadd.d	ft0, ft0, ft1
80010b2c: 87 30 81 00  	fld	ft1, 8(sp)
80010b30: 53 70 10 02  	fadd.d	ft0, ft0, ft1
80010b34: 27 30 01 00  	fsd	ft0, 0(sp)
80010b38: 07 35 01 00  	fld	fa0, 0(sp)
80010b3c: 13 01 01 02  	addi	sp, sp, 32
80010b40: 67 80 00 00  	ret

80010b44 <__floatundisf>:
80010b44: 13 01 01 f9  	addi	sp, sp, -112
80010b48: 23 22 b1 06  	sw	a1, 100(sp)
80010b4c: 23 20 a1 06  	sw	a0, 96(sp)
80010b50: 83 25 41 06  	lw	a1, 100(sp)
80010b54: 03 25 01 06  	lw	a0, 96(sp)
80010b58: 33 65 b5 00  	or	a0, a0, a1
80010b5c: 93 05 00 00  	mv	a1, zero
80010b60: 63 1a b5 00  	bne	a0, a1, 0x80010b74 <.LBB0_2>
80010b64: 6f 00 40 00  	j	0x80010b68 <.LBB0_1>

80010b68 <.LBB0_1>:
80010b68: 13 05 00 00  	mv	a0, zero
80010b6c: 23 26 a1 06  	sw	a0, 108(sp)
80010b70: 6f 00 40 3c  	j	0x80010f34 <.LBB0_21>

80010b74 <.LBB0_2>:
80010b74: 13 05 00 04  	addi	a0, zero, 64
80010b78: 23 22 a1 04  	sw	a0, 68(sp)
80010b7c: 23 2e a1 04  	sw	a0, 92(sp)
80010b80: 83 25 01 06  	lw	a1, 96(sp)
80010b84: 03 25 41 06  	lw	a0, 100(sp)
80010b88: 13 56 15 00  	srli	a2, a0, 1
80010b8c: 33 66 c5 00  	or	a2, a0, a2
80010b90: 93 56 26 00  	srli	a3, a2, 2
80010b94: 33 66 d6 00  	or	a2, a2, a3
80010b98: 93 56 46 00  	srli	a3, a2, 4
80010b9c: 33 66 d6 00  	or	a2, a2, a3
80010ba0: 93 56 86 00  	srli	a3, a2, 8
80010ba4: 33 66 d6 00  	or	a2, a2, a3
80010ba8: 93 56 06 01  	srli	a3, a2, 16
80010bac: 33 66 d6 00  	or	a2, a2, a3
80010bb0: 13 46 f6 ff  	not	a2, a2
80010bb4: 93 56 16 00  	srli	a3, a2, 1
80010bb8: 37 57 55 55  	lui	a4, 349525
80010bbc: 93 08 57 55  	addi	a7, a4, 1365
80010bc0: b3 f6 16 01  	and	a3, a3, a7
80010bc4: b3 06 d6 40  	sub	a3, a2, a3
80010bc8: 37 36 33 33  	lui	a2, 209715
80010bcc: 13 08 36 33  	addi	a6, a2, 819
80010bd0: 33 f6 06 01  	and	a2, a3, a6
80010bd4: 93 d6 26 00  	srli	a3, a3, 2
80010bd8: b3 f6 06 01  	and	a3, a3, a6
80010bdc: 33 06 d6 00  	add	a2, a2, a3
80010be0: 93 56 46 00  	srli	a3, a2, 4
80010be4: 33 06 d6 00  	add	a2, a2, a3
80010be8: b7 16 0f 0f  	lui	a3, 61681
80010bec: 13 87 f6 f0  	addi	a4, a3, -241
80010bf0: 33 76 e6 00  	and	a2, a2, a4
80010bf4: b7 06 01 01  	lui	a3, 4112
80010bf8: 93 86 16 10  	addi	a3, a3, 257
80010bfc: 33 06 d6 02  	mul	a2, a2, a3
80010c00: 13 56 86 01  	srli	a2, a2, 24
80010c04: 93 d7 15 00  	srli	a5, a1, 1
80010c08: b3 e5 f5 00  	or	a1, a1, a5
80010c0c: 93 d7 25 00  	srli	a5, a1, 2
80010c10: b3 e5 f5 00  	or	a1, a1, a5
80010c14: 93 d7 45 00  	srli	a5, a1, 4
80010c18: b3 e5 f5 00  	or	a1, a1, a5
80010c1c: 93 d7 85 00  	srli	a5, a1, 8
80010c20: b3 e5 f5 00  	or	a1, a1, a5
80010c24: 93 d7 05 01  	srli	a5, a1, 16
80010c28: b3 e5 f5 00  	or	a1, a1, a5
80010c2c: 93 c5 f5 ff  	not	a1, a1
80010c30: 93 d7 15 00  	srli	a5, a1, 1
80010c34: b3 f7 17 01  	and	a5, a5, a7
80010c38: b3 87 f5 40  	sub	a5, a1, a5
80010c3c: b3 f5 07 01  	and	a1, a5, a6
80010c40: 93 d7 27 00  	srli	a5, a5, 2
80010c44: b3 f7 07 01  	and	a5, a5, a6
80010c48: b3 85 f5 00  	add	a1, a1, a5
80010c4c: 93 d7 45 00  	srli	a5, a1, 4
80010c50: b3 85 f5 00  	add	a1, a1, a5
80010c54: b3 f5 e5 00  	and	a1, a1, a4
80010c58: b3 85 d5 02  	mul	a1, a1, a3
80010c5c: 93 d5 85 01  	srli	a1, a1, 24
80010c60: 93 85 05 02  	addi	a1, a1, 32
80010c64: 23 24 b1 04  	sw	a1, 72(sp)
80010c68: 93 05 00 00  	mv	a1, zero
80010c6c: 23 26 c1 04  	sw	a2, 76(sp)
80010c70: 63 16 b5 00  	bne	a0, a1, 0x80010c7c <.LBB0_4>
80010c74: 03 25 81 04  	lw	a0, 72(sp)
80010c78: 23 26 a1 04  	sw	a0, 76(sp)

80010c7c <.LBB0_4>:
80010c7c: 03 25 41 04  	lw	a0, 68(sp)
80010c80: 83 25 c1 04  	lw	a1, 76(sp)
80010c84: 33 05 b5 40  	sub	a0, a0, a1
80010c88: 23 2c a1 04  	sw	a0, 88(sp)
80010c8c: 03 25 81 05  	lw	a0, 88(sp)
80010c90: 13 05 f5 ff  	addi	a0, a0, -1
80010c94: 23 2a a1 04  	sw	a0, 84(sp)
80010c98: 03 25 81 05  	lw	a0, 88(sp)
80010c9c: 93 05 90 01  	addi	a1, zero, 25
80010ca0: 63 46 b5 1e  	blt	a0, a1, 0x80010e8c <.LBB0_17>
80010ca4: 6f 00 40 00  	j	0x80010ca8 <.LBB0_5>

80010ca8 <.LBB0_5>:
80010ca8: 03 25 81 05  	lw	a0, 88(sp)
80010cac: 23 20 a1 04  	sw	a0, 64(sp)
80010cb0: 93 05 90 01  	addi	a1, zero, 25
80010cb4: 63 0c b5 00  	beq	a0, a1, 0x80010ccc <.LBB0_7>
80010cb8: 6f 00 40 00  	j	0x80010cbc <.LBB0_6>

80010cbc <.LBB0_6>:
80010cbc: 03 25 01 04  	lw	a0, 64(sp)
80010cc0: 93 05 a0 01  	addi	a1, zero, 26
80010cc4: 63 06 b5 02  	beq	a0, a1, 0x80010cf0 <.LBB0_8>
80010cc8: 6f 00 c0 02  	j	0x80010cf4 <.LBB0_9>

80010ccc <.LBB0_7>:
80010ccc: 03 25 41 06  	lw	a0, 100(sp)
80010cd0: 83 25 01 06  	lw	a1, 96(sp)
80010cd4: 13 d6 f5 01  	srli	a2, a1, 31
80010cd8: 13 15 15 00  	slli	a0, a0, 1
80010cdc: 33 65 c5 00  	or	a0, a0, a2
80010ce0: 93 95 15 00  	slli	a1, a1, 1
80010ce4: 23 20 b1 06  	sw	a1, 96(sp)
80010ce8: 23 22 a1 06  	sw	a0, 100(sp)
80010cec: 6f 00 80 10  	j	0x80010df4 <.LBB0_14>

80010cf0 <.LBB0_8>:
80010cf0: 6f 00 40 10  	j	0x80010df4 <.LBB0_14>

80010cf4 <.LBB0_9>:
80010cf4: 83 25 01 06  	lw	a1, 96(sp)
80010cf8: 23 22 b1 02  	sw	a1, 36(sp)
80010cfc: 03 26 41 06  	lw	a2, 100(sp)
80010d00: 23 24 c1 02  	sw	a2, 40(sp)
80010d04: 03 25 81 05  	lw	a0, 88(sp)
80010d08: 23 26 a1 02  	sw	a0, 44(sp)
80010d0c: 13 07 65 fe  	addi	a4, a0, -26
80010d10: 93 06 90 03  	addi	a3, zero, 57
80010d14: b3 87 a6 40  	sub	a5, a3, a0
80010d18: 93 16 16 00  	slli	a3, a2, 1
80010d1c: b3 96 f6 00  	sll	a3, a3, a5
80010d20: b3 d5 e5 00  	srl	a1, a1, a4
80010d24: b3 e6 d5 00  	or	a3, a1, a3
80010d28: 13 05 65 fc  	addi	a0, a0, -58
80010d2c: b3 55 a6 00  	srl	a1, a2, a0
80010d30: 23 28 b1 02  	sw	a1, 48(sp)
80010d34: 93 05 00 00  	mv	a1, zero
80010d38: 23 2a b1 02  	sw	a1, 52(sp)
80010d3c: 33 56 e6 00  	srl	a2, a2, a4
80010d40: 23 2c d1 02  	sw	a3, 56(sp)
80010d44: 23 2e c1 02  	sw	a2, 60(sp)
80010d48: 63 4a b5 00  	blt	a0, a1, 0x80010d5c <.LBB0_11>
80010d4c: 03 25 41 03  	lw	a0, 52(sp)
80010d50: 83 25 01 03  	lw	a1, 48(sp)
80010d54: 23 2c b1 02  	sw	a1, 56(sp)
80010d58: 23 2e a1 02  	sw	a0, 60(sp)

80010d5c <.LBB0_11>:
80010d5c: 83 25 41 03  	lw	a1, 52(sp)
80010d60: 03 26 41 02  	lw	a2, 36(sp)
80010d64: 83 27 c1 02  	lw	a5, 44(sp)
80010d68: 03 25 81 02  	lw	a0, 40(sp)
80010d6c: 83 26 81 03  	lw	a3, 56(sp)
80010d70: 03 27 c1 03  	lw	a4, 60(sp)
80010d74: 23 28 e1 00  	sw	a4, 16(sp)
80010d78: 23 2a d1 00  	sw	a3, 20(sp)
80010d7c: 93 06 a0 05  	addi	a3, zero, 90
80010d80: 33 87 f6 40  	sub	a4, a3, a5
80010d84: 33 15 e5 00  	sll	a0, a0, a4
80010d88: 93 06 f0 01  	addi	a3, zero, 31
80010d8c: 33 88 e6 40  	sub	a6, a3, a4
80010d90: 93 56 16 00  	srli	a3, a2, 1
80010d94: b3 d6 06 01  	srl	a3, a3, a6
80010d98: b3 66 d5 00  	or	a3, a0, a3
80010d9c: 13 05 a0 03  	addi	a0, zero, 58
80010da0: 33 05 f5 40  	sub	a0, a0, a5
80010da4: b3 17 a6 00  	sll	a5, a2, a0
80010da8: 23 2c f1 00  	sw	a5, 24(sp)
80010dac: 33 16 e6 00  	sll	a2, a2, a4
80010db0: 23 2e d1 00  	sw	a3, 28(sp)
80010db4: 23 20 c1 02  	sw	a2, 32(sp)
80010db8: 63 4a b5 00  	blt	a0, a1, 0x80010dcc <.LBB0_13>
80010dbc: 03 25 41 03  	lw	a0, 52(sp)
80010dc0: 83 25 81 01  	lw	a1, 24(sp)
80010dc4: 23 2e b1 00  	sw	a1, 28(sp)
80010dc8: 23 20 a1 02  	sw	a0, 32(sp)

80010dcc <.LBB0_13>:
80010dcc: 83 25 01 01  	lw	a1, 16(sp)
80010dd0: 03 25 41 01  	lw	a0, 20(sp)
80010dd4: 83 26 c1 01  	lw	a3, 28(sp)
80010dd8: 03 26 01 02  	lw	a2, 32(sp)
80010ddc: 33 66 d6 00  	or	a2, a2, a3
80010de0: 33 36 c0 00  	snez	a2, a2
80010de4: 33 65 c5 00  	or	a0, a0, a2
80010de8: 23 22 b1 06  	sw	a1, 100(sp)
80010dec: 23 20 a1 06  	sw	a0, 96(sp)
80010df0: 6f 00 40 00  	j	0x80010df4 <.LBB0_14>

80010df4 <.LBB0_14>:
80010df4: 03 25 01 06  	lw	a0, 96(sp)
80010df8: 93 75 45 00  	andi	a1, a0, 4
80010dfc: 93 d5 25 00  	srli	a1, a1, 2
80010e00: 33 65 b5 00  	or	a0, a0, a1
80010e04: 23 20 a1 06  	sw	a0, 96(sp)
80010e08: 03 25 41 06  	lw	a0, 100(sp)
80010e0c: 03 26 01 06  	lw	a2, 96(sp)
80010e10: 93 05 16 00  	addi	a1, a2, 1
80010e14: 33 b6 c5 00  	sltu	a2, a1, a2
80010e18: 33 05 c5 00  	add	a0, a0, a2
80010e1c: 23 20 b1 06  	sw	a1, 96(sp)
80010e20: 23 22 a1 06  	sw	a0, 100(sp)
80010e24: 03 25 01 06  	lw	a0, 96(sp)
80010e28: 83 25 41 06  	lw	a1, 100(sp)
80010e2c: 13 96 e5 01  	slli	a2, a1, 30
80010e30: 13 55 25 00  	srli	a0, a0, 2
80010e34: 33 65 c5 00  	or	a0, a0, a2
80010e38: 93 d5 25 00  	srli	a1, a1, 2
80010e3c: 23 22 b1 06  	sw	a1, 100(sp)
80010e40: 23 20 a1 06  	sw	a0, 96(sp)
80010e44: 03 45 31 06  	lbu	a0, 99(sp)
80010e48: 13 75 15 00  	andi	a0, a0, 1
80010e4c: 93 05 00 00  	mv	a1, zero
80010e50: 63 0c b5 02  	beq	a0, a1, 0x80010e88 <.LBB0_16>
80010e54: 6f 00 40 00  	j	0x80010e58 <.LBB0_15>

80010e58 <.LBB0_15>:
80010e58: 03 25 01 06  	lw	a0, 96(sp)
80010e5c: 83 25 41 06  	lw	a1, 100(sp)
80010e60: 13 96 f5 01  	slli	a2, a1, 31
80010e64: 13 55 15 00  	srli	a0, a0, 1
80010e68: 33 65 c5 00  	or	a0, a0, a2
80010e6c: 93 d5 15 00  	srli	a1, a1, 1
80010e70: 23 22 b1 06  	sw	a1, 100(sp)
80010e74: 23 20 a1 06  	sw	a0, 96(sp)
80010e78: 03 25 41 05  	lw	a0, 84(sp)
80010e7c: 13 05 15 00  	addi	a0, a0, 1
80010e80: 23 2a a1 04  	sw	a0, 84(sp)
80010e84: 6f 00 40 00  	j	0x80010e88 <.LBB0_16>

80010e88 <.LBB0_16>:
80010e88: 6f 00 c0 07  	j	0x80010f04 <.LBB0_20>

80010e8c <.LBB0_17>:
80010e8c: 83 25 81 05  	lw	a1, 88(sp)
80010e90: 13 05 80 01  	addi	a0, zero, 24
80010e94: 33 07 b5 40  	sub	a4, a0, a1
80010e98: 03 26 01 06  	lw	a2, 96(sp)
80010e9c: 03 25 41 06  	lw	a0, 100(sp)
80010ea0: 33 15 e5 00  	sll	a0, a0, a4
80010ea4: 93 06 f0 01  	addi	a3, zero, 31
80010ea8: b3 87 e6 40  	sub	a5, a3, a4
80010eac: 93 56 16 00  	srli	a3, a2, 1
80010eb0: b3 d6 f6 00  	srl	a3, a3, a5
80010eb4: b3 66 d5 00  	or	a3, a0, a3
80010eb8: 13 05 80 ff  	addi	a0, zero, -8
80010ebc: 33 05 b5 40  	sub	a0, a0, a1
80010ec0: b3 15 a6 00  	sll	a1, a2, a0
80010ec4: 23 20 b1 00  	sw	a1, 0(sp)
80010ec8: 93 05 00 00  	mv	a1, zero
80010ecc: 23 22 b1 00  	sw	a1, 4(sp)
80010ed0: 33 16 e6 00  	sll	a2, a2, a4
80010ed4: 23 24 d1 00  	sw	a3, 8(sp)
80010ed8: 23 26 c1 00  	sw	a2, 12(sp)
80010edc: 63 4a b5 00  	blt	a0, a1, 0x80010ef0 <.LBB0_19>
80010ee0: 03 25 41 00  	lw	a0, 4(sp)
80010ee4: 83 25 01 00  	lw	a1, 0(sp)
80010ee8: 23 24 b1 00  	sw	a1, 8(sp)
80010eec: 23 26 a1 00  	sw	a0, 12(sp)

80010ef0 <.LBB0_19>:
80010ef0: 03 25 81 00  	lw	a0, 8(sp)
80010ef4: 83 25 c1 00  	lw	a1, 12(sp)
80010ef8: 23 20 b1 06  	sw	a1, 96(sp)
80010efc: 23 22 a1 06  	sw	a0, 100(sp)
80010f00: 6f 00 40 00  	j	0x80010f04 <.LBB0_20>

80010f04 <.LBB0_20>:
80010f04: 03 25 41 05  	lw	a0, 84(sp)
80010f08: 13 05 f5 07  	addi	a0, a0, 127
80010f0c: 13 15 75 01  	slli	a0, a0, 23
80010f10: 83 25 01 06  	lw	a1, 96(sp)
80010f14: 37 06 80 00  	lui	a2, 2048
80010f18: 13 06 f6 ff  	addi	a2, a2, -1
80010f1c: b3 f5 c5 00  	and	a1, a1, a2
80010f20: 33 65 b5 00  	or	a0, a0, a1
80010f24: 23 28 a1 04  	sw	a0, 80(sp)
80010f28: 07 20 01 05  	flw	ft0, 80(sp)
80010f2c: 27 26 01 06  	fsw	ft0, 108(sp)
80010f30: 6f 00 40 00  	j	0x80010f34 <.LBB0_21>

80010f34 <.LBB0_21>:
80010f34: 07 25 c1 06  	flw	fa0, 108(sp)
80010f38: 13 01 01 07  	addi	sp, sp, 112
80010f3c: 67 80 00 00  	ret

Disassembly of section .rodata:

80010f40 <__floatdidf.twop52>:
80010f40: 00 00        	<unknown>
80010f42: 00 00        	<unknown>
80010f44: 00 00        	<unknown>
80010f46: 30 43        	<unknown>

80010f48 <__floatdidf.twop32>:
80010f48: 00 00        	<unknown>
80010f4a: 00 00        	<unknown>
80010f4c: 00 00        	<unknown>
80010f4e: f0 41        	<unknown>
80010f50: 00 00        	<unknown>
80010f52: 00 00        	<unknown>
80010f54: 00 00        	<unknown>
80010f56: 30 45        	<unknown>
80010f58: 00 00        	<unknown>
80010f5a: 00 00        	<unknown>
80010f5c: 00 00        	<unknown>
80010f5e: 30 43        	<unknown>

80010f60 <__floatundidf.twop52>:
80010f60: 00 00        	<unknown>
80010f62: 00 00        	<unknown>
80010f64: 00 00        	<unknown>
80010f66: 30 43        	<unknown>

80010f68 <__floatundidf.twop84>:
80010f68: 00 00        	<unknown>
80010f6a: 00 00        	<unknown>
80010f6c: 00 00        	<unknown>
80010f6e: 30 45        	<unknown>

80010f70 <__floatundidf.twop84_plus_twop52>:
80010f70: 00 00        	<unknown>
80010f72: 10 00        	<unknown>
80010f74: 00 00        	<unknown>
80010f76: 30 45        	<unknown>

Disassembly of section .sdata:

80010f78 <.LCPI0_0>:
80010f78: 00 00        	<unknown>
80010f7a: 00 00        	<unknown>
80010f7c: 00 00        	<unknown>
80010f7e: 45 c0        	<unknown>

80010f80 <.LCPI0_1>:
80010f80: 00 00        	<unknown>
80010f82: 00 00        	<unknown>
80010f84: 00 00        	<unknown>
80010f86: 45 40        	<unknown>

80010f88 <.LCPI0_2>:
80010f88: 00 00        	<unknown>
80010f8a: 28 c2        	<unknown>

80010f8c <.LCPI0_3>:
80010f8c: 00 00        	<unknown>
80010f8e: 28 42        	<unknown>

80010f90 <.LCPI0_4>:
80010f90: a0 1a        	<unknown>
80010f92: cf 3f 00 00  	fnmadd.s	ft11, ft0, ft0, ft0, rup
80010f96: 00 00        	<unknown>

80010f98 <.LCPI0_0>:
80010f98: 00 00        	<unknown>
80010f9a: 00 00        	<unknown>
80010f9c: 00 00        	<unknown>
80010f9e: f0 41        	<unknown>

80010fa0 <.LCPI0_0>:
80010fa0: 00 00        	<unknown>
80010fa2: 00 00        	<unknown>
80010fa4: 00 00        	<unknown>
80010fa6: f0 41        	<unknown>

80010fa8 <.LCPI0_0>:
80010fa8: 00 00        	<unknown>
80010faa: 00 00        	<unknown>
80010fac: 00 00        	<unknown>
80010fae: f0 41        	<unknown>

80010fb0 <.LCPI0_1>:
80010fb0: 00 00        	<unknown>
80010fb2: 00 00        	<unknown>
80010fb4: 00 00        	<unknown>
80010fb6: 30 c3        	<unknown>

80010fb8 <.LCPI0_0>:
80010fb8: 00 00        	<unknown>
80010fba: 10 00        	<unknown>
80010fbc: 00 00        	<unknown>
80010fbe: 30 c5        	<unknown>

Disassembly of section .comment:

00000000 <.comment>:
       0: 63 6c 61 6e  	bltu	sp, t1, 0x6f8 <.comment+0x6f8>
       4: 67 20 76 65  	<unknown>
       8: 72 73        	<unknown>
       a: 69 6f        	<unknown>
       c: 6e 20        	<unknown>
       e: 31 32        	<unknown>
      10: 2e 30        	<unknown>
      12: 2e 30        	<unknown>
      14: 20 28        	<unknown>
      16: 67 69 74 40  	<unknown>
      1a: 69 69        	<unknown>
      1c: 73 2d 67 69  	csrrs	s10, 1686, a4
      20: 74 2e        	<unknown>
      22: 65 65        	<unknown>
      24: 2e 65        	<unknown>
      26: 74 68        	<unknown>
      28: 7a 2e        	<unknown>
      2a: 63 68 3a 68  	bltu	s4, gp, 0x6ba <.comment+0x6ba>
      2e: 75 65        	<unknown>
      30: 74 74        	<unknown>
      32: 65 72        	<unknown>
      34: 6e 2f        	<unknown>
      36: 73 6e 69 74  	csrrsi	t3, 1862, 18
      3a: 63 68 2d 6c  	bltu	s10, sp, 0x70a <.comment+0x70a>
      3e: 6c 76        	<unknown>
      40: 6d 2e        	<unknown>
      42: 67 69 74 20  	<unknown>
      46: 30 61        	<unknown>
      48: 35 64        	<unknown>
      4a: 64 61        	<unknown>
      4c: 62 64        	<unknown>
      4e: 35 62        	<unknown>
      50: 35 38        	<unknown>
      52: 31 35        	<unknown>
      54: 63 32 31 38  	<unknown>
      58: 37 31 30 37  	lui	sp, 226051
      5c: 39 37        	<unknown>
      5e: 34 64        	<unknown>
      60: 33 37 33 66  	<unknown>
      64: 33 35 32 37  	<unknown>
      68: 34 33        	<unknown>
      6a: 32 65        	<unknown>
      6c: 38 33        	<unknown>
      6e: 29 00        	<unknown>
      70: 4c 69        	<unknown>
      72: 6e 6b        	<unknown>
      74: 65 72        	<unknown>
      76: 3a 20        	<unknown>
      78: 4c 4c        	<unknown>
      7a: 44 20        	<unknown>
      7c: 31 32        	<unknown>
      7e: 2e 30        	<unknown>
      80: 2e 30        	<unknown>
      82: 20 28        	<unknown>
      84: 67 69 74 40  	<unknown>
      88: 69 69        	<unknown>
      8a: 73 2d 67 69  	csrrs	s10, 1686, a4
      8e: 74 2e        	<unknown>
      90: 65 65        	<unknown>
      92: 2e 65        	<unknown>
      94: 74 68        	<unknown>
      96: 7a 2e        	<unknown>
      98: 63 68 3a 68  	bltu	s4, gp, 0x728 <.comment+0x728>
      9c: 75 65        	<unknown>
      9e: 74 74        	<unknown>
      a0: 65 72        	<unknown>
      a2: 6e 2f        	<unknown>
      a4: 73 6e 69 74  	csrrsi	t3, 1862, 18
      a8: 63 68 2d 6c  	bltu	s10, sp, 0x778 <.comment+0x778>
      ac: 6c 76        	<unknown>
      ae: 6d 2e        	<unknown>
      b0: 67 69 74 20  	<unknown>
      b4: 30 61        	<unknown>
      b6: 35 64        	<unknown>
      b8: 64 61        	<unknown>
      ba: 62 64        	<unknown>
      bc: 35 62        	<unknown>
      be: 35 38        	<unknown>
      c0: 31 35        	<unknown>
      c2: 63 32 31 38  	<unknown>
      c6: 37 31 30 37  	lui	sp, 226051
      ca: 39 37        	<unknown>
      cc: 34 64        	<unknown>
      ce: 33 37 33 66  	<unknown>
      d2: 33 35 32 37  	<unknown>
      d6: 34 33        	<unknown>
      d8: 32 65        	<unknown>
      da: 38 33        	<unknown>
      dc: 29 00        	<unknown>
      de: 63 6c 61 6e  	bltu	sp, t1, 0x7d6 <.comment+0x7d6>
      e2: 67 20 76 65  	<unknown>
      e6: 72 73        	<unknown>
      e8: 69 6f        	<unknown>
      ea: 6e 20        	<unknown>
      ec: 31 32        	<unknown>
      ee: 2e 30        	<unknown>
      f0: 2e 30        	<unknown>
      f2: 20 28        	<unknown>
      f4: 67 69 74 40  	<unknown>
      f8: 69 69        	<unknown>
      fa: 73 2d 67 69  	csrrs	s10, 1686, a4
      fe: 74 2e        	<unknown>
     100: 65 65        	<unknown>
     102: 2e 65        	<unknown>
     104: 74 68        	<unknown>
     106: 7a 2e        	<unknown>
     108: 63 68 3a 68  	bltu	s4, gp, 0x798 <.comment+0x798>
     10c: 75 65        	<unknown>
     10e: 74 74        	<unknown>
     110: 65 72        	<unknown>
     112: 6e 2f        	<unknown>
     114: 73 6e 69 74  	csrrsi	t3, 1862, 18
     118: 63 68 2d 6c  	bltu	s10, sp, 0x7e8 <.comment+0x7e8>
     11c: 6c 76        	<unknown>
     11e: 6d 2e        	<unknown>
     120: 67 69 74 20  	<unknown>
     124: 38 33        	<unknown>
     126: 36 34        	<unknown>
     128: 66 35        	<unknown>
     12a: 33 36 39 65  	<unknown>
     12e: 65 65        	<unknown>
     130: 62 32        	<unknown>
     132: 64 61        	<unknown>
     134: 38 64        	<unknown>
     136: 62 32        	<unknown>
     138: 62 61        	<unknown>
     13a: 65 37        	<unknown>
     13c: 37 31 36 63  	lui	sp, 406371
     140: 35 34        	<unknown>
     142: 39 39        	<unknown>
     144: 33 30 64 38  	<unknown>
     148: 64 66        	<unknown>
     14a: 39 33        	<unknown>
     14c: 29 00        	<unknown>
     14e: 00           	<unknown>

Disassembly of section .riscv.attributes:

00000000 <.riscv.attributes>:
       0: 41 2f        	<unknown>
       2: 00 00        	<unknown>
       4: 00 72        	<unknown>
       6: 69 73        	<unknown>
       8: 63 76 00 01  	bgeu	zero, a6, 0x14 <.comment+0x14>
       c: 25 00        	<unknown>
       e: 00 00        	<unknown>
      10: 04 10        	<unknown>
      12: 05 72        	<unknown>
      14: 76 33        	<unknown>
      16: 32 69        	<unknown>
      18: 32 70        	<unknown>
      1a: 30 5f        	<unknown>
      1c: 6d 32        	<unknown>
      1e: 70 30        	<unknown>
      20: 5f 61 32 70  	<unknown>
      24: 30 5f        	<unknown>
      26: 66 32        	<unknown>
      28: 70 30        	<unknown>
      2a: 5f 64 32 70  	<unknown>
      2e: 30 00        	<unknown>

Disassembly of section .symtab:

00000000 <.symtab>:
		...
      10: a6 02        	<unknown>
      12: 00 00        	<unknown>
      14: ac 01        	<unknown>
      16: 01 80        	<unknown>
      18: 00 00        	<unknown>
      1a: 00 00        	<unknown>
      1c: 00 00        	<unknown>
      1e: 02 00        	<unknown>
      20: 2d 02        	<unknown>
      22: 00 00        	<unknown>
      24: d8 01        	<unknown>
      26: 01 80        	<unknown>
      28: 00 00        	<unknown>
      2a: 00 00        	<unknown>
      2c: 00 00        	<unknown>
      2e: 02 00        	<unknown>
      30: 07 02 00 00  	<unknown>
      34: 04 02        	<unknown>
      36: 01 80        	<unknown>
      38: 00 00        	<unknown>
      3a: 00 00        	<unknown>
      3c: 00 00        	<unknown>
      3e: 02 00        	<unknown>
      40: cc 01        	<unknown>
      42: 00 00        	<unknown>
      44: 30 02        	<unknown>
      46: 01 80        	<unknown>
      48: 00 00        	<unknown>
      4a: 00 00        	<unknown>
      4c: 00 00        	<unknown>
      4e: 02 00        	<unknown>
      50: b2 01        	<unknown>
      52: 00 00        	<unknown>
      54: ac 03        	<unknown>
      56: 01 80        	<unknown>
      58: 00 00        	<unknown>
      5a: 00 00        	<unknown>
      5c: 00 00        	<unknown>
      5e: 02 00        	<unknown>
      60: d3 02 00 00  	fadd.s	ft5, ft0, ft0, rne
      64: 78 0f        	<unknown>
      66: 01 80        	<unknown>
      68: 00 00        	<unknown>
      6a: 00 00        	<unknown>
      6c: 00 00        	<unknown>
      6e: 04 00        	<unknown>
      70: 9d 02        	<unknown>
      72: 00 00        	<unknown>
      74: 80 0f        	<unknown>
      76: 01 80        	<unknown>
      78: 00 00        	<unknown>
      7a: 00 00        	<unknown>
      7c: 00 00        	<unknown>
      7e: 04 00        	<unknown>
      80: 24 02        	<unknown>
      82: 00 00        	<unknown>
      84: 88 0f        	<unknown>
      86: 01 80        	<unknown>
      88: 00 00        	<unknown>
      8a: 00 00        	<unknown>
      8c: 00 00        	<unknown>
      8e: 04 00        	<unknown>
      90: fe 01        	<unknown>
      92: 00 00        	<unknown>
      94: 8c 0f        	<unknown>
      96: 01 80        	<unknown>
      98: 00 00        	<unknown>
      9a: 00 00        	<unknown>
      9c: 00 00        	<unknown>
      9e: 04 00        	<unknown>
      a0: c3 01 00 00  	fmadd.s	ft3, ft0, ft0, ft0, rne
      a4: 90 0f        	<unknown>
      a6: 01 80        	<unknown>
      a8: 00 00        	<unknown>
      aa: 00 00        	<unknown>
      ac: 00 00        	<unknown>
      ae: 04 00        	<unknown>
      b0: c7 02 00 00  	fmsub.s	ft5, ft0, ft0, ft0, rne
      b4: 0c 00        	<unknown>
      b6: 01 80        	<unknown>
      b8: 00 00        	<unknown>
      ba: 00 00        	<unknown>
      bc: 00 00        	<unknown>
      be: 02 00        	<unknown>
      c0: 91 02        	<unknown>
      c2: 00 00        	<unknown>
      c4: 1c 00        	<unknown>
      c6: 01 80        	<unknown>
      c8: 00 00        	<unknown>
      ca: 00 00        	<unknown>
      cc: 00 00        	<unknown>
      ce: 02 00        	<unknown>
      d0: 18 02        	<unknown>
      d2: 00 00        	<unknown>
      d4: 48 00        	<unknown>
      d6: 01 80        	<unknown>
      d8: 00 00        	<unknown>
      da: 00 00        	<unknown>
      dc: 00 00        	<unknown>
      de: 02 00        	<unknown>
      e0: f2 01        	<unknown>
      e2: 00 00        	<unknown>
      e4: 7c 00        	<unknown>
      e6: 01 80        	<unknown>
      e8: 00 00        	<unknown>
      ea: 00 00        	<unknown>
      ec: 00 00        	<unknown>
      ee: 02 00        	<unknown>
      f0: c0 02        	<unknown>
      f2: 00 00        	<unknown>
      f4: 00 00        	<unknown>
      f6: 01 80        	<unknown>
      f8: 00 00        	<unknown>
      fa: 00 00        	<unknown>
      fc: 00 00        	<unknown>
      fe: 02 00        	<unknown>
     100: 6a 01        	<unknown>
     102: 00 00        	<unknown>
     104: 74 00        	<unknown>
     106: 01 80        	<unknown>
     108: 00 00        	<unknown>
     10a: 00 00        	<unknown>
     10c: 00 00        	<unknown>
     10e: 02 00        	<unknown>
     110: 3d 00        	<unknown>
     112: 00 00        	<unknown>
     114: 68 00        	<unknown>
     116: 01 80        	<unknown>
     118: 00 00        	<unknown>
     11a: 00 00        	<unknown>
     11c: 00 00        	<unknown>
     11e: 02 00        	<unknown>
     120: 17 00 00 00  	auipc	zero, 0
     124: 88 00        	<unknown>
     126: 01 80        	<unknown>
     128: 00 00        	<unknown>
     12a: 00 00        	<unknown>
     12c: 00 00        	<unknown>
     12e: 02 00        	<unknown>
     130: 1c 00        	<unknown>
     132: 00 00        	<unknown>
     134: 0c 00        	<unknown>
     136: 01 80        	<unknown>
     138: 00 00        	<unknown>
     13a: 00 00        	<unknown>
     13c: 00 00        	<unknown>
     13e: 02 00        	<unknown>
     140: a6 02        	<unknown>
     142: 00 00        	<unknown>
     144: 00 04        	<unknown>
     146: 01 80        	<unknown>
     148: 00 00        	<unknown>
     14a: 00 00        	<unknown>
     14c: 00 00        	<unknown>
     14e: 02 00        	<unknown>
     150: 2d 02        	<unknown>
     152: 00 00        	<unknown>
     154: 34 04        	<unknown>
     156: 01 80        	<unknown>
     158: 00 00        	<unknown>
     15a: 00 00        	<unknown>
     15c: 00 00        	<unknown>
     15e: 02 00        	<unknown>
     160: 07 02 00 00  	<unknown>
     164: 4c 04        	<unknown>
     166: 01 80        	<unknown>
     168: 00 00        	<unknown>
     16a: 00 00        	<unknown>
     16c: 00 00        	<unknown>
     16e: 02 00        	<unknown>
     170: 59 00        	<unknown>
     172: 00 00        	<unknown>
     174: e0 03        	<unknown>
     176: 01 80        	<unknown>
     178: 80 00        	<unknown>
     17a: 00 00        	<unknown>
     17c: 02 02        	<unknown>
     17e: 02 00        	<unknown>
     180: a6 02        	<unknown>
     182: 00 00        	<unknown>
     184: 80 04        	<unknown>
     186: 01 80        	<unknown>
     188: 00 00        	<unknown>
     18a: 00 00        	<unknown>
     18c: 00 00        	<unknown>
     18e: 02 00        	<unknown>
     190: 2d 02        	<unknown>
     192: 00 00        	<unknown>
     194: b4 04        	<unknown>
     196: 01 80        	<unknown>
     198: 00 00        	<unknown>
     19a: 00 00        	<unknown>
     19c: 00 00        	<unknown>
     19e: 02 00        	<unknown>
     1a0: 07 02 00 00  	<unknown>
     1a4: cc 04        	<unknown>
     1a6: 01 80        	<unknown>
     1a8: 00 00        	<unknown>
     1aa: 00 00        	<unknown>
     1ac: 00 00        	<unknown>
     1ae: 02 00        	<unknown>
     1b0: 42 00        	<unknown>
     1b2: 00 00        	<unknown>
     1b4: 60 04        	<unknown>
     1b6: 01 80        	<unknown>
     1b8: 80 00        	<unknown>
     1ba: 00 00        	<unknown>
     1bc: 02 02        	<unknown>
     1be: 02 00        	<unknown>
     1c0: a6 02        	<unknown>
     1c2: 00 00        	<unknown>
     1c4: fc 04        	<unknown>
     1c6: 01 80        	<unknown>
     1c8: 00 00        	<unknown>
     1ca: 00 00        	<unknown>
     1cc: 00 00        	<unknown>
     1ce: 02 00        	<unknown>
     1d0: 2d 02        	<unknown>
     1d2: 00 00        	<unknown>
     1d4: 0c 05        	<unknown>
     1d6: 01 80        	<unknown>
     1d8: 00 00        	<unknown>
     1da: 00 00        	<unknown>
     1dc: 00 00        	<unknown>
     1de: 02 00        	<unknown>
     1e0: 07 02 00 00  	<unknown>
     1e4: 54 05        	<unknown>
     1e6: 01 80        	<unknown>
     1e8: 00 00        	<unknown>
     1ea: 00 00        	<unknown>
     1ec: 00 00        	<unknown>
     1ee: 02 00        	<unknown>
     1f0: d3 02 00 00  	fadd.s	ft5, ft0, ft0, rne
     1f4: 98 0f        	<unknown>
     1f6: 01 80        	<unknown>
     1f8: 00 00        	<unknown>
     1fa: 00 00        	<unknown>
     1fc: 00 00        	<unknown>
     1fe: 04 00        	<unknown>
     200: 63 00 00 00  	beqz	zero, 0x200 <.symtab+0x200>
     204: e0 04        	<unknown>
     206: 01 80        	<unknown>
     208: 84 00        	<unknown>
     20a: 00 00        	<unknown>
     20c: 02 02        	<unknown>
     20e: 02 00        	<unknown>
     210: a6 02        	<unknown>
     212: 00 00        	<unknown>
     214: 80 05        	<unknown>
     216: 01 80        	<unknown>
     218: 00 00        	<unknown>
     21a: 00 00        	<unknown>
     21c: 00 00        	<unknown>
     21e: 02 00        	<unknown>
     220: 2d 02        	<unknown>
     222: 00 00        	<unknown>
     224: 90 05        	<unknown>
     226: 01 80        	<unknown>
     228: 00 00        	<unknown>
     22a: 00 00        	<unknown>
     22c: 00 00        	<unknown>
     22e: 02 00        	<unknown>
     230: 07 02 00 00  	<unknown>
     234: e4 05        	<unknown>
     236: 01 80        	<unknown>
     238: 00 00        	<unknown>
     23a: 00 00        	<unknown>
     23c: 00 00        	<unknown>
     23e: 02 00        	<unknown>
     240: d3 02 00 00  	fadd.s	ft5, ft0, ft0, rne
     244: a0 0f        	<unknown>
     246: 01 80        	<unknown>
     248: 00 00        	<unknown>
     24a: 00 00        	<unknown>
     24c: 00 00        	<unknown>
     24e: 04 00        	<unknown>
     250: 4c 00        	<unknown>
     252: 00 00        	<unknown>
     254: 64 05        	<unknown>
     256: 01 80        	<unknown>
     258: 90 00        	<unknown>
     25a: 00 00        	<unknown>
     25c: 02 02        	<unknown>
     25e: 02 00        	<unknown>
     260: d3 02 00 00  	fadd.s	ft5, ft0, ft0, rne
     264: a8 0f        	<unknown>
     266: 01 80        	<unknown>
     268: 00 00        	<unknown>
     26a: 00 00        	<unknown>
     26c: 00 00        	<unknown>
     26e: 04 00        	<unknown>
     270: 9d 02        	<unknown>
     272: 00 00        	<unknown>
     274: b0 0f        	<unknown>
     276: 01 80        	<unknown>
     278: 00 00        	<unknown>
     27a: 00 00        	<unknown>
     27c: 00 00        	<unknown>
     27e: 04 00        	<unknown>
     280: 7e 02        	<unknown>
     282: 00 00        	<unknown>
     284: 48 0f        	<unknown>
     286: 01 80        	<unknown>
     288: 08 00        	<unknown>
     28a: 00 00        	<unknown>
     28c: 01 00        	<unknown>
     28e: 03 00 56 02  	lb	zero, 37(a2)
     292: 00 00        	<unknown>
     294: 40 0f        	<unknown>
     296: 01 80        	<unknown>
     298: 08 00        	<unknown>
     29a: 00 00        	<unknown>
     29c: 01 00        	<unknown>
     29e: 03 00 38 01  	lb	zero, 19(a6)
     2a2: 00 00        	<unknown>
     2a4: f4 05        	<unknown>
     2a6: 01 80        	<unknown>
     2a8: 78 00        	<unknown>
     2aa: 00 00        	<unknown>
     2ac: 02 02        	<unknown>
     2ae: 02 00        	<unknown>
     2b0: a6 02        	<unknown>
     2b2: 00 00        	<unknown>
     2b4: 90 06        	<unknown>
     2b6: 01 80        	<unknown>
     2b8: 00 00        	<unknown>
     2ba: 00 00        	<unknown>
     2bc: 00 00        	<unknown>
     2be: 02 00        	<unknown>
     2c0: b7 02 00 00  	lui	t0, 0
     2c4: c4 08        	<unknown>
     2c6: 01 80        	<unknown>
     2c8: 00 00        	<unknown>
     2ca: 00 00        	<unknown>
     2cc: 00 00        	<unknown>
     2ce: 02 00        	<unknown>
     2d0: 0f 02 00 00  	<unknown>
     2d4: 34 09        	<unknown>
     2d6: 01 80        	<unknown>
     2d8: 00 00        	<unknown>
     2da: 00 00        	<unknown>
     2dc: 00 00        	<unknown>
     2de: 02 00        	<unknown>
     2e0: e9 01        	<unknown>
     2e2: 00 00        	<unknown>
     2e4: 5c 09        	<unknown>
     2e6: 01 80        	<unknown>
     2e8: 00 00        	<unknown>
     2ea: 00 00        	<unknown>
     2ec: 00 00        	<unknown>
     2ee: 02 00        	<unknown>
     2f0: ba 01        	<unknown>
     2f2: 00 00        	<unknown>
     2f4: c0 09        	<unknown>
     2f6: 01 80        	<unknown>
     2f8: 00 00        	<unknown>
     2fa: 00 00        	<unknown>
     2fc: 00 00        	<unknown>
     2fe: 02 00        	<unknown>
     300: a9 01        	<unknown>
     302: 00 00        	<unknown>
     304: f0 09        	<unknown>
     306: 01 80        	<unknown>
     308: 00 00        	<unknown>
     30a: 00 00        	<unknown>
     30c: 00 00        	<unknown>
     30e: 02 00        	<unknown>
     310: 98 01        	<unknown>
     312: 00 00        	<unknown>
     314: f4 09        	<unknown>
     316: 01 80        	<unknown>
     318: 00 00        	<unknown>
     31a: 00 00        	<unknown>
     31c: 00 00        	<unknown>
     31e: 02 00        	<unknown>
     320: 7f 01 00 00  	<unknown>
     324: 58 0a        	<unknown>
     326: 01 80        	<unknown>
     328: 00 00        	<unknown>
     32a: 00 00        	<unknown>
     32c: 00 00        	<unknown>
     32e: 02 00        	<unknown>
     330: 2d 02        	<unknown>
     332: 00 00        	<unknown>
     334: 9c 06        	<unknown>
     336: 01 80        	<unknown>
     338: 00 00        	<unknown>
     33a: 00 00        	<unknown>
     33c: 00 00        	<unknown>
     33e: 02 00        	<unknown>
     340: dc 02        	<unknown>
     342: 00 00        	<unknown>
     344: 6c 0a        	<unknown>
     346: 01 80        	<unknown>
     348: 00 00        	<unknown>
     34a: 00 00        	<unknown>
     34c: 00 00        	<unknown>
     34e: 02 00        	<unknown>
     350: ae 02        	<unknown>
     352: 00 00        	<unknown>
     354: ac 0a        	<unknown>
     356: 01 80        	<unknown>
     358: 00 00        	<unknown>
     35a: 00 00        	<unknown>
     35c: 00 00        	<unknown>
     35e: 02 00        	<unknown>
     360: cc 01        	<unknown>
     362: 00 00        	<unknown>
     364: e4 07        	<unknown>
     366: 01 80        	<unknown>
     368: 00 00        	<unknown>
     36a: 00 00        	<unknown>
     36c: 00 00        	<unknown>
     36e: 02 00        	<unknown>
     370: b2 01        	<unknown>
     372: 00 00        	<unknown>
     374: 10 08        	<unknown>
     376: 01 80        	<unknown>
     378: 00 00        	<unknown>
     37a: 00 00        	<unknown>
     37c: 00 00        	<unknown>
     37e: 02 00        	<unknown>
     380: a1 01        	<unknown>
     382: 00 00        	<unknown>
     384: 24 08        	<unknown>
     386: 01 80        	<unknown>
     388: 00 00        	<unknown>
     38a: 00 00        	<unknown>
     38c: 00 00        	<unknown>
     38e: 02 00        	<unknown>
     390: 90 01        	<unknown>
     392: 00 00        	<unknown>
     394: 34 08        	<unknown>
     396: 01 80        	<unknown>
     398: 00 00        	<unknown>
     39a: 00 00        	<unknown>
     39c: 00 00        	<unknown>
     39e: 02 00        	<unknown>
     3a0: 88 01        	<unknown>
     3a2: 00 00        	<unknown>
     3a4: 58 08        	<unknown>
     3a6: 01 80        	<unknown>
     3a8: 00 00        	<unknown>
     3aa: 00 00        	<unknown>
     3ac: 00 00        	<unknown>
     3ae: 02 00        	<unknown>
     3b0: 77 01 00 00  	<unknown>
     3b4: 5c 08        	<unknown>
     3b6: 01 80        	<unknown>
     3b8: 00 00        	<unknown>
     3ba: 00 00        	<unknown>
     3bc: 00 00        	<unknown>
     3be: 02 00        	<unknown>
     3c0: 1e 01        	<unknown>
     3c2: 00 00        	<unknown>
     3c4: 6c 06        	<unknown>
     3c6: 01 80        	<unknown>
     3c8: 4c 04        	<unknown>
     3ca: 00 00        	<unknown>
     3cc: 02 02        	<unknown>
     3ce: 02 00        	<unknown>
     3d0: d3 02 00 00  	fadd.s	ft5, ft0, ft0, rne
     3d4: b8 0f        	<unknown>
     3d6: 01 80        	<unknown>
     3d8: 00 00        	<unknown>
     3da: 00 00        	<unknown>
     3dc: 00 00        	<unknown>
     3de: 04 00        	<unknown>
     3e0: 69 02        	<unknown>
     3e2: 00 00        	<unknown>
     3e4: 60 0f        	<unknown>
     3e6: 01 80        	<unknown>
     3e8: 08 00        	<unknown>
     3ea: 00 00        	<unknown>
     3ec: 01 00        	<unknown>
     3ee: 03 00 d4 01  	lb	zero, 29(s0)
     3f2: 00 00        	<unknown>
     3f4: 68 0f        	<unknown>
     3f6: 01 80        	<unknown>
     3f8: 08 00        	<unknown>
     3fa: 00 00        	<unknown>
     3fc: 01 00        	<unknown>
     3fe: 03 00 35 02  	lb	zero, 35(a0)
     402: 00 00        	<unknown>
     404: 70 0f        	<unknown>
     406: 01 80        	<unknown>
     408: 08 00        	<unknown>
     40a: 00 00        	<unknown>
     40c: 01 00        	<unknown>
     40e: 03 00 44 01  	lb	zero, 20(s0)
     412: 00 00        	<unknown>
     414: b8 0a        	<unknown>
     416: 01 80        	<unknown>
     418: 8c 00        	<unknown>
     41a: 00 00        	<unknown>
     41c: 02 02        	<unknown>
     41e: 02 00        	<unknown>
     420: a6 02        	<unknown>
     422: 00 00        	<unknown>
     424: 68 0b        	<unknown>
     426: 01 80        	<unknown>
     428: 00 00        	<unknown>
     42a: 00 00        	<unknown>
     42c: 00 00        	<unknown>
     42e: 02 00        	<unknown>
     430: b7 02 00 00  	lui	t0, 0
     434: 5c 0d        	<unknown>
     436: 01 80        	<unknown>
     438: 00 00        	<unknown>
     43a: 00 00        	<unknown>
     43c: 00 00        	<unknown>
     43e: 02 00        	<unknown>
     440: 0f 02 00 00  	<unknown>
     444: cc 0d        	<unknown>
     446: 01 80        	<unknown>
     448: 00 00        	<unknown>
     44a: 00 00        	<unknown>
     44c: 00 00        	<unknown>
     44e: 02 00        	<unknown>
     450: e9 01        	<unknown>
     452: 00 00        	<unknown>
     454: f4 0d        	<unknown>
     456: 01 80        	<unknown>
     458: 00 00        	<unknown>
     45a: 00 00        	<unknown>
     45c: 00 00        	<unknown>
     45e: 02 00        	<unknown>
     460: ba 01        	<unknown>
     462: 00 00        	<unknown>
     464: 58 0e        	<unknown>
     466: 01 80        	<unknown>
     468: 00 00        	<unknown>
     46a: 00 00        	<unknown>
     46c: 00 00        	<unknown>
     46e: 02 00        	<unknown>
     470: a9 01        	<unknown>
     472: 00 00        	<unknown>
     474: 88 0e        	<unknown>
     476: 01 80        	<unknown>
     478: 00 00        	<unknown>
     47a: 00 00        	<unknown>
     47c: 00 00        	<unknown>
     47e: 02 00        	<unknown>
     480: 98 01        	<unknown>
     482: 00 00        	<unknown>
     484: 8c 0e        	<unknown>
     486: 01 80        	<unknown>
     488: 00 00        	<unknown>
     48a: 00 00        	<unknown>
     48c: 00 00        	<unknown>
     48e: 02 00        	<unknown>
     490: 7f 01 00 00  	<unknown>
     494: f0 0e        	<unknown>
     496: 01 80        	<unknown>
     498: 00 00        	<unknown>
     49a: 00 00        	<unknown>
     49c: 00 00        	<unknown>
     49e: 02 00        	<unknown>
     4a0: 2d 02        	<unknown>
     4a2: 00 00        	<unknown>
     4a4: 74 0b        	<unknown>
     4a6: 01 80        	<unknown>
     4a8: 00 00        	<unknown>
     4aa: 00 00        	<unknown>
     4ac: 00 00        	<unknown>
     4ae: 02 00        	<unknown>
     4b0: dc 02        	<unknown>
     4b2: 00 00        	<unknown>
     4b4: 04 0f        	<unknown>
     4b6: 01 80        	<unknown>
     4b8: 00 00        	<unknown>
     4ba: 00 00        	<unknown>
     4bc: 00 00        	<unknown>
     4be: 02 00        	<unknown>
     4c0: ae 02        	<unknown>
     4c2: 00 00        	<unknown>
     4c4: 34 0f        	<unknown>
     4c6: 01 80        	<unknown>
     4c8: 00 00        	<unknown>
     4ca: 00 00        	<unknown>
     4cc: 00 00        	<unknown>
     4ce: 02 00        	<unknown>
     4d0: cc 01        	<unknown>
     4d2: 00 00        	<unknown>
     4d4: 7c 0c        	<unknown>
     4d6: 01 80        	<unknown>
     4d8: 00 00        	<unknown>
     4da: 00 00        	<unknown>
     4dc: 00 00        	<unknown>
     4de: 02 00        	<unknown>
     4e0: b2 01        	<unknown>
     4e2: 00 00        	<unknown>
     4e4: a8 0c        	<unknown>
     4e6: 01 80        	<unknown>
     4e8: 00 00        	<unknown>
     4ea: 00 00        	<unknown>
     4ec: 00 00        	<unknown>
     4ee: 02 00        	<unknown>
     4f0: a1 01        	<unknown>
     4f2: 00 00        	<unknown>
     4f4: bc 0c        	<unknown>
     4f6: 01 80        	<unknown>
     4f8: 00 00        	<unknown>
     4fa: 00 00        	<unknown>
     4fc: 00 00        	<unknown>
     4fe: 02 00        	<unknown>
     500: 90 01        	<unknown>
     502: 00 00        	<unknown>
     504: cc 0c        	<unknown>
     506: 01 80        	<unknown>
     508: 00 00        	<unknown>
     50a: 00 00        	<unknown>
     50c: 00 00        	<unknown>
     50e: 02 00        	<unknown>
     510: 88 01        	<unknown>
     512: 00 00        	<unknown>
     514: f0 0c        	<unknown>
     516: 01 80        	<unknown>
     518: 00 00        	<unknown>
     51a: 00 00        	<unknown>
     51c: 00 00        	<unknown>
     51e: 02 00        	<unknown>
     520: 77 01 00 00  	<unknown>
     524: f4 0c        	<unknown>
     526: 01 80        	<unknown>
     528: 00 00        	<unknown>
     52a: 00 00        	<unknown>
     52c: 00 00        	<unknown>
     52e: 02 00        	<unknown>
     530: 2a 01        	<unknown>
     532: 00 00        	<unknown>
     534: 44 0b        	<unknown>
     536: 01 80        	<unknown>
     538: fc 03        	<unknown>
     53a: 00 00        	<unknown>
     53c: 02 02        	<unknown>
     53e: 02 00        	<unknown>
     540: 38 00        	<unknown>
     542: 00 00        	<unknown>
     544: 90 00        	<unknown>
     546: 01 80        	<unknown>
     548: 50 03        	<unknown>
     54a: 00 00        	<unknown>
     54c: 12 00        	<unknown>
     54e: 02 00        	<unknown>
     550: e5 02        	<unknown>
     552: 00 00        	<unknown>
     554: 78 17        	<unknown>
     556: 01 80        	<unknown>
     558: 00 00        	<unknown>
     55a: 00 00        	<unknown>
     55c: 10 00        	<unknown>
     55e: 04 00        	<unknown>
     560: 10 00        	<unknown>
     562: 00 00        	<unknown>
     564: 00 00        	<unknown>
     566: 01 80        	<unknown>
     568: 00 00        	<unknown>
     56a: 00 00        	<unknown>
     56c: 10 00        	<unknown>
     56e: 02 00        	<unknown>
     570: 29 00        	<unknown>
		...
     57a: 00 00        	<unknown>
     57c: 10 00        	<unknown>
     57e: 01 00        	<unknown>
     580: 05 01        	<unknown>
     582: 00 00        	<unknown>
     584: 40 00        	<unknown>
     586: 00 40        	<unknown>
     588: 00 00        	<unknown>
     58a: 00 00        	<unknown>
     58c: 10 00        	<unknown>
     58e: f1 ff        	<unknown>
     590: 97 00 00 00  	auipc	ra, 0
     594: 10 00        	<unknown>
     596: 00 40        	<unknown>
     598: 00 00        	<unknown>
     59a: 00 00        	<unknown>
     59c: 10 00        	<unknown>
     59e: f1 ff        	<unknown>
     5a0: d9 00        	<unknown>
     5a2: 00 00        	<unknown>
     5a4: 20 00        	<unknown>
     5a6: 00 40        	<unknown>
     5a8: 00 00        	<unknown>
     5aa: 00 00        	<unknown>
     5ac: 10 00        	<unknown>
     5ae: f1 ff        	<unknown>
     5b0: ac 00        	<unknown>
     5b2: 00 00        	<unknown>
     5b4: 08 00        	<unknown>
     5b6: 00 40        	<unknown>
     5b8: 00 00        	<unknown>
     5ba: 00 00        	<unknown>
     5bc: 10 00        	<unknown>
     5be: f1 ff        	<unknown>
     5c0: 6e 01        	<unknown>
     5c2: 00 00        	<unknown>
     5c4: 00 00        	<unknown>
     5c6: 00 80        	<unknown>
     5c8: 00 00        	<unknown>
     5ca: 00 00        	<unknown>
     5cc: 10 00        	<unknown>
     5ce: f1 ff        	<unknown>
     5d0: 52 01        	<unknown>
     5d2: 00 00        	<unknown>
     5d4: 10 00        	<unknown>
     5d6: 00 00        	<unknown>
     5d8: 00 00        	<unknown>
     5da: 00 00        	<unknown>
     5dc: 10 00        	<unknown>
     5de: f1 ff        	<unknown>
     5e0: 80 00        	<unknown>
     5e2: 00 00        	<unknown>
     5e4: 00 00        	<unknown>
     5e6: 00 40        	<unknown>
     5e8: 00 00        	<unknown>
     5ea: 00 00        	<unknown>
     5ec: 10 00        	<unknown>
     5ee: f1 ff        	<unknown>
     5f0: f4 00        	<unknown>
     5f2: 00 00        	<unknown>
     5f4: 18 00        	<unknown>
     5f6: 00 40        	<unknown>
     5f8: 00 00        	<unknown>
     5fa: 00 00        	<unknown>
     5fc: 10 00        	<unknown>
     5fe: f1 ff        	<unknown>
     600: cd 00        	<unknown>
     602: 00 00        	<unknown>
     604: 28 00        	<unknown>
     606: 00 40        	<unknown>
     608: 00 00        	<unknown>
     60a: 00 00        	<unknown>
     60c: 10 00        	<unknown>
     60e: f1 ff        	<unknown>
     610: 70 00        	<unknown>
     612: 00 00        	<unknown>
     614: 30 00        	<unknown>
     616: 00 40        	<unknown>
     618: 00 00        	<unknown>
     61a: 00 00        	<unknown>
     61c: 10 00        	<unknown>
     61e: f1 ff        	<unknown>
     620: c1 00        	<unknown>
     622: 00 00        	<unknown>
     624: 38 00        	<unknown>
     626: 00 40        	<unknown>
     628: 00 00        	<unknown>
     62a: 00 00        	<unknown>
     62c: 10 00        	<unknown>
     62e: f1 ff        	<unknown>
     630: e5 00        	<unknown>
     632: 00 00        	<unknown>
     634: 00 48        	<unknown>
     636: 20 00        	<unknown>
     638: 00 00        	<unknown>
     63a: 00 00        	<unknown>
     63c: 10 00        	<unknown>
     63e: f1 ff        	<unknown>
     640: 01 00        	<unknown>
     642: 00 00        	<unknown>
     644: 00 00        	<unknown>
     646: 00 c0        	<unknown>
     648: 00 00        	<unknown>
     64a: 00 00        	<unknown>
     64c: 10 00        	<unknown>
     64e: f1 ff        	<unknown>
     650: 0b 00 00 00  	frep.i	zero, 1, 0, 0
     654: c0 0f        	<unknown>
     656: 01 80        	<unknown>
     658: 00 00        	<unknown>
     65a: 00 00        	<unknown>
     65c: 10 00        	<unknown>
     65e: 04 00        	<unknown>
     660: 60 01        	<unknown>
     662: 00 00        	<unknown>
     664: c0 0f        	<unknown>
     666: 01 80        	<unknown>
     668: 00 00        	<unknown>
     66a: 00 00        	<unknown>
     66c: 10 00        	<unknown>
     66e: 04 00        	<unknown>

Disassembly of section .shstrtab:

00000000 <.shstrtab>:
       0: 00 2e        	<unknown>
       2: 74 65        	<unknown>
       4: 78 74        	<unknown>
       6: 00 2e        	<unknown>
       8: 63 6f 6d 6d  	bltu	s10, s6, 0x6e6 <.symtab+0x6e6>
       c: 65 6e        	<unknown>
       e: 74 00        	<unknown>
      10: 2e 72        	<unknown>
      12: 69 73        	<unknown>
      14: 63 76 2e 61  	bgeu	t3, s2, 0x620 <.symtab+0x620>
      18: 74 74        	<unknown>
      1a: 72 69        	<unknown>
      1c: 62 75        	<unknown>
      1e: 74 65        	<unknown>
      20: 73 00 2e 73  	<unknown>
      24: 68 73        	<unknown>
      26: 74 72        	<unknown>
      28: 74 61        	<unknown>
      2a: 62 00        	<unknown>
      2c: 2e 73        	<unknown>
      2e: 74 72        	<unknown>
      30: 74 61        	<unknown>
      32: 62 00        	<unknown>
      34: 2e 73        	<unknown>
      36: 79 6d        	<unknown>
      38: 74 61        	<unknown>
      3a: 62 00        	<unknown>
      3c: 2e 73        	<unknown>
      3e: 64 61        	<unknown>
      40: 74 61        	<unknown>
      42: 00 2e        	<unknown>
      44: 72 6f        	<unknown>
      46: 64 61        	<unknown>
      48: 74 61        	<unknown>
      4a: 00 2e        	<unknown>
      4c: 6c 31        	<unknown>
      4e: 00           	<unknown>

Disassembly of section .strtab:

00000000 <.strtab>:
       0: 00 66        	<unknown>
       2: 61 6b        	<unknown>
       4: 65 5f        	<unknown>
       6: 75 61        	<unknown>
       8: 72 74        	<unknown>
       a: 00 5f        	<unknown>
       c: 5f 62 73 73  	<unknown>
      10: 5f 73 74 61  	<unknown>
      14: 72 74        	<unknown>
      16: 00 68        	<unknown>
      18: 61 6c        	<unknown>
      1a: 74 00        	<unknown>
      1c: 72 65        	<unknown>
      1e: 73 65 74 5f  	csrrsi	a0, 1527, 8
      22: 76 65        	<unknown>
      24: 63 74 6f 72  	bgeu	t5, t1, 0x74c <.symtab+0x74c>
      28: 00 61        	<unknown>
      2a: 74 6f        	<unknown>
      2c: 6d 69        	<unknown>
      2e: 63 5f 62 61  	bge	tp, s6, 0x64c <.symtab+0x64c>
      32: 72 72        	<unknown>
      34: 69 65        	<unknown>
      36: 72 00        	<unknown>
      38: 6d 61        	<unknown>
      3a: 69 6e        	<unknown>
      3c: 00 66        	<unknown>
      3e: 61 69        	<unknown>
      40: 6c 00        	<unknown>
      42: 5f 5f 66 69  	<unknown>
      46: 78 73        	<unknown>
      48: 66 64        	<unknown>
      4a: 69 00        	<unknown>
      4c: 5f 5f 66 69  	<unknown>
      50: 78 75        	<unknown>
      52: 6e 73        	<unknown>
      54: 73 66 64 69  	csrrsi	a2, 1686, 8
      58: 00 5f        	<unknown>
      5a: 5f 66 69 78  	<unknown>
      5e: 64 66        	<unknown>
      60: 64 69        	<unknown>
      62: 00 5f        	<unknown>
      64: 5f 66 69 78  	<unknown>
      68: 75 6e        	<unknown>
      6a: 73 64 66 64  	csrrsi	s0, 1606, 12
      6e: 69 00        	<unknown>
      70: 63 79 63 6c  	bgeu	t1, t1, 0x742 <.symtab+0x742>
      74: 65 5f        	<unknown>
      76: 63 6f 75 6e  	bltu	a0, t2, 0x774 <.symtab+0x774>
      7a: 74 5f        	<unknown>
      7c: 72 65        	<unknown>
      7e: 67 00 74 63  	jr	1591(s0)
      82: 64 6d        	<unknown>
      84: 5f 73 74 61  	<unknown>
      88: 72 74        	<unknown>
      8a: 5f 61 64 64  	<unknown>
      8e: 72 65        	<unknown>
      90: 73 73 5f 72  	csrrci	t1, 1829, 30
      94: 65 67        	<unknown>
      96: 00 6e        	<unknown>
      98: 72 5f        	<unknown>
      9a: 63 6f 72 65  	bltu	tp, s7, 0x6f8 <.symtab+0x6f8>
      9e: 73 5f 61 64  	csrrwi	t5, 1606, 2
      a2: 64 72        	<unknown>
      a4: 65 73        	<unknown>
      a6: 73 5f 72 65  	csrrwi	t5, 1623, 4
      aa: 67 00 74 63  	jr	1591(s0)
      ae: 64 6d        	<unknown>
      b0: 5f 65 6e 64  	<unknown>
      b4: 5f 61 64 64  	<unknown>
      b8: 72 65        	<unknown>
      ba: 73 73 5f 72  	csrrci	t1, 1829, 30
      be: 65 67        	<unknown>
      c0: 00 62        	<unknown>
      c2: 61 72        	<unknown>
      c4: 72 69        	<unknown>
      c6: 65 72        	<unknown>
      c8: 5f 72 65 67  	<unknown>
      cc: 00 77        	<unknown>
      ce: 61 6b        	<unknown>
      d0: 65 5f        	<unknown>
      d2: 75 70        	<unknown>
      d4: 5f 72 65 67  	<unknown>
      d8: 00 73        	<unknown>
      da: 63 72 61 74  	bgeu	sp, t1, 0x81e <.symtab+0x81e>
      de: 63 68 5f 72  	bltu	t5, t0, 0x80e <.symtab+0x80e>
      e2: 65 67        	<unknown>
      e4: 00 73        	<unknown>
      e6: 73 72 5f 63  	csrrci	tp, 1589, 30
      ea: 6f 6e 66 69  	jal	t3, 0x66780 <.symtab+0x66780>
      ee: 67 5f 72 65  	<unknown>
      f2: 67 00 66 65  	jr	1622(a2)
      f6: 74 63        	<unknown>
      f8: 68 5f        	<unknown>
      fa: 65 6e        	<unknown>
      fc: 61 62        	<unknown>
      fe: 6c 65        	<unknown>
     100: 5f 72 65 67  	<unknown>
     104: 00 63        	<unknown>
     106: 6c 75        	<unknown>
     108: 73 74 65 72  	csrrci	s0, 1830, 10
     10c: 5f 62 61 73  	<unknown>
     110: 65 5f        	<unknown>
     112: 68 61        	<unknown>
     114: 72 74        	<unknown>
     116: 5f 69 64 5f  	<unknown>
     11a: 72 65        	<unknown>
     11c: 67 00 5f 5f  	jr	1525(t5)
     120: 66 6c        	<unknown>
     122: 6f 61 74 64  	jal	sp, 0x46f68 <.symtab+0x46f68>
     126: 69 73        	<unknown>
     128: 66 00        	<unknown>
     12a: 5f 5f 66 6c  	<unknown>
     12e: 6f 61 74 75  	jal	sp, 0x47084 <.symtab+0x47084>
     132: 6e 64        	<unknown>
     134: 69 73        	<unknown>
     136: 66 00        	<unknown>
     138: 5f 5f 66 6c  	<unknown>
     13c: 6f 61 74 64  	jal	sp, 0x46f82 <.symtab+0x46f82>
     140: 69 64        	<unknown>
     142: 66 00        	<unknown>
     144: 5f 5f 66 6c  	<unknown>
     148: 6f 61 74 75  	jal	sp, 0x4709e <.symtab+0x4709e>
     14c: 6e 64        	<unknown>
     14e: 69 64        	<unknown>
     150: 66 00        	<unknown>
     152: 6c 31        	<unknown>
     154: 5f 61 6c 6c  	<unknown>
     158: 6f 63 5f 62  	jal	t1, 0xf6f7c <.symtab+0xf6f7c>
     15c: 61 73        	<unknown>
     15e: 65 00        	<unknown>
     160: 5f 5f 62 73  	<unknown>
     164: 73 5f 65 6e  	csrrwi	t5, 1766, 10
     168: 64 00        	<unknown>
     16a: 65 6f        	<unknown>
     16c: 63 00 52 4f  	beq	tp, s5, 0x64c <.symtab+0x64c>
     170: 4d 5f        	<unknown>
     172: 42 41        	<unknown>
     174: 53 45 00 2e  	<unknown>
     178: 4c 42        	<unknown>
     17a: 42 30        	<unknown>
     17c: 5f 39 00 2e  	<unknown>
     180: 4c 42        	<unknown>
     182: 42 30        	<unknown>
     184: 5f 31 39 00  	<unknown>
     188: 2e 4c        	<unknown>
     18a: 42 42        	<unknown>
     18c: 30 5f        	<unknown>
     18e: 38 00        	<unknown>
     190: 2e 4c        	<unknown>
     192: 42 42        	<unknown>
     194: 30 5f        	<unknown>
     196: 37 00 2e 4c  	lui	zero, 312032
     19a: 42 42        	<unknown>
     19c: 30 5f        	<unknown>
     19e: 31 37        	<unknown>
     1a0: 00 2e        	<unknown>
     1a2: 4c 42        	<unknown>
     1a4: 42 30        	<unknown>
     1a6: 5f 36 00 2e  	<unknown>
     1aa: 4c 42        	<unknown>
     1ac: 42 30        	<unknown>
     1ae: 5f 31 36 00  	<unknown>
     1b2: 2e 4c        	<unknown>
     1b4: 42 42        	<unknown>
     1b6: 30 5f        	<unknown>
     1b8: 35 00        	<unknown>
     1ba: 2e 4c        	<unknown>
     1bc: 42 42        	<unknown>
     1be: 30 5f        	<unknown>
     1c0: 31 35        	<unknown>
     1c2: 00 2e        	<unknown>
     1c4: 4c 43        	<unknown>
     1c6: 50 49        	<unknown>
     1c8: 30 5f        	<unknown>
     1ca: 34 00        	<unknown>
     1cc: 2e 4c        	<unknown>
     1ce: 42 42        	<unknown>
     1d0: 30 5f        	<unknown>
     1d2: 34 00        	<unknown>
     1d4: 5f 5f 66 6c  	<unknown>
     1d8: 6f 61 74 75  	jal	sp, 0x4712e <.symtab+0x4712e>
     1dc: 6e 64        	<unknown>
     1de: 69 64        	<unknown>
     1e0: 66 2e        	<unknown>
     1e2: 74 77        	<unknown>
     1e4: 6f 70 38 34  	j	0x87d26 <.symtab+0x87d26>
     1e8: 00 2e        	<unknown>
     1ea: 4c 42        	<unknown>
     1ec: 42 30        	<unknown>
     1ee: 5f 31 34 00  	<unknown>
     1f2: 2e 4c        	<unknown>
     1f4: 70 63        	<unknown>
     1f6: 72 65        	<unknown>
     1f8: 6c 5f        	<unknown>
     1fa: 68 69        	<unknown>
     1fc: 33 00 2e 4c  	<unknown>
     200: 43 50 49 30  	<unknown>
     204: 5f 33 00 2e  	<unknown>
     208: 4c 42        	<unknown>
     20a: 42 30        	<unknown>
     20c: 5f 33 00 2e  	<unknown>
     210: 4c 42        	<unknown>
     212: 42 30        	<unknown>
     214: 5f 31 33 00  	<unknown>
     218: 2e 4c        	<unknown>
     21a: 70 63        	<unknown>
     21c: 72 65        	<unknown>
     21e: 6c 5f        	<unknown>
     220: 68 69        	<unknown>
     222: 32 00        	<unknown>
     224: 2e 4c        	<unknown>
     226: 43 50 49 30  	<unknown>
     22a: 5f 32 00 2e  	<unknown>
     22e: 4c 42        	<unknown>
     230: 42 30        	<unknown>
     232: 5f 32 00 5f  	<unknown>
     236: 5f 66 6c 6f  	<unknown>
     23a: 61 74        	<unknown>
     23c: 75 6e        	<unknown>
     23e: 64 69        	<unknown>
     240: 64 66        	<unknown>
     242: 2e 74        	<unknown>
     244: 77 6f 70 38  	<unknown>
     248: 34 5f        	<unknown>
     24a: 70 6c        	<unknown>
     24c: 75 73        	<unknown>
     24e: 5f 74 77 6f  	<unknown>
     252: 70 35        	<unknown>
     254: 32 00        	<unknown>
     256: 5f 5f 66 6c  	<unknown>
     25a: 6f 61 74 64  	jal	sp, 0x470a0 <.symtab+0x470a0>
     25e: 69 64        	<unknown>
     260: 66 2e        	<unknown>
     262: 74 77        	<unknown>
     264: 6f 70 35 32  	j	0x57d86 <.symtab+0x57d86>
     268: 00 5f        	<unknown>
     26a: 5f 66 6c 6f  	<unknown>
     26e: 61 74        	<unknown>
     270: 75 6e        	<unknown>
     272: 64 69        	<unknown>
     274: 64 66        	<unknown>
     276: 2e 74        	<unknown>
     278: 77 6f 70 35  	<unknown>
     27c: 32 00        	<unknown>
     27e: 5f 5f 66 6c  	<unknown>
     282: 6f 61 74 64  	jal	sp, 0x470c8 <.symtab+0x470c8>
     286: 69 64        	<unknown>
     288: 66 2e        	<unknown>
     28a: 74 77        	<unknown>
     28c: 6f 70 33 32  	j	0x37dae <.symtab+0x37dae>
     290: 00 2e        	<unknown>
     292: 4c 70        	<unknown>
     294: 63 72 65 6c  	bgeu	a0, t1, 0x958 <.symtab+0x958>
     298: 5f 68 69 31  	<unknown>
     29c: 00 2e        	<unknown>
     29e: 4c 43        	<unknown>
     2a0: 50 49        	<unknown>
     2a2: 30 5f        	<unknown>
     2a4: 31 00        	<unknown>
     2a6: 2e 4c        	<unknown>
     2a8: 42 42        	<unknown>
     2aa: 30 5f        	<unknown>
     2ac: 31 00        	<unknown>
     2ae: 2e 4c        	<unknown>
     2b0: 42 42        	<unknown>
     2b2: 30 5f        	<unknown>
     2b4: 32 31        	<unknown>
     2b6: 00 2e        	<unknown>
     2b8: 4c 42        	<unknown>
     2ba: 42 30        	<unknown>
     2bc: 5f 31 31 00  	<unknown>
     2c0: 2e 4c        	<unknown>
     2c2: 74 6d        	<unknown>
     2c4: 70 30        	<unknown>
     2c6: 00 2e        	<unknown>
     2c8: 4c 70        	<unknown>
     2ca: 63 72 65 6c  	bgeu	a0, t1, 0x98e <.symtab+0x98e>
     2ce: 5f 68 69 30  	<unknown>
     2d2: 00 2e        	<unknown>
     2d4: 4c 43        	<unknown>
     2d6: 50 49        	<unknown>
     2d8: 30 5f        	<unknown>
     2da: 30 00        	<unknown>
     2dc: 2e 4c        	<unknown>
     2de: 42 42        	<unknown>
     2e0: 30 5f        	<unknown>
     2e2: 32 30        	<unknown>
     2e4: 00 5f        	<unknown>
     2e6: 5f 67 6c 6f  	<unknown>
     2ea: 62 61        	<unknown>
     2ec: 6c 5f        	<unknown>
     2ee: 70 6f        	<unknown>
     2f0: 69 6e        	<unknown>
     2f2: 74 65        	<unknown>
     2f4: 72 24        	<unknown>
     2f6: 00           	<unknown>
