
bin/frep_single:     file format elf32-littleriscv


Disassembly of section .l1:

00000000 <atomic_barrier>:
   0:	0000                	unimp
	...

Disassembly of section .text:

80010000 <_start>:
80010000:	00001197          	auipc	gp,0x1
80010004:	8b018193          	addi	gp,gp,-1872 # 800108b0 <__global_pointer$>
80010008:	0040006f          	j	8001000c <reset_vector>

8001000c <reset_vector>:
8001000c:	bfff0117          	auipc	sp,0xbfff0
80010010:	ffc10113          	addi	sp,sp,-4 # 40000008 <tcdm_end_address_reg>
80010014:	00012103          	lw	sp,0(sp)
80010018:	f1402573          	csrr	a0,mhartid
8001001c:	00351293          	slli	t0,a0,0x3
80010020:	40510133          	sub	sp,sp,t0
80010024:	00629293          	slli	t0,t0,0x6
80010028:	40510133          	sub	sp,sp,t0
8001002c:	00010213          	mv	tp,sp
80010030:	00100293          	li	t0,1
80010034:	00929293          	slli	t0,t0,0x9
80010038:	40520233          	sub	tp,tp,t0
8001003c:	bfff0297          	auipc	t0,0xbfff0
80010040:	fd428293          	addi	t0,t0,-44 # 40000010 <nr_cores_address_reg>
80010044:	0002a583          	lw	a1,0(t0)
80010048:	038000ef          	jal	ra,80010080 <main>
8001004c:	00151513          	slli	a0,a0,0x1
80010050:	00156513          	ori	a0,a0,1
80010054:	0100006f          	j	80010064 <eoc>

80010058 <fail>:
80010058:	fff00293          	li	t0,-1
8001005c:	00554533          	xor	a0,a0,t0
80010060:	0040006f          	j	80010064 <eoc>

80010064 <eoc>:
80010064:	f14022f3          	csrr	t0,mhartid
80010068:	00029863          	bnez	t0,80010078 <halt>
8001006c:	bfff0297          	auipc	t0,0xbfff0
80010070:	fb428293          	addi	t0,t0,-76 # 40000020 <scratch_reg>
80010074:	00a2a023          	sw	a0,0(t0)

80010078 <halt>:
80010078:	10500073          	wfi
8001007c:	ffdff06f          	j	80010078 <halt>

Disassembly of section .text.startup:

80010080 <main>:
80010080:	00400293          	li	t0,4
80010084:	00000797          	auipc	a5,0x0
80010088:	02c7b707          	fld	fa4,44(a5) # 800100b0 <main+0x30>
8001008c:	d20007d3          	fcvt.d.w	fa5,zero
80010090:	0002808b          	0x2808b
80010094:	02e7f7d3          	fadd.d	fa5,fa5,fa4
80010098:	00500793          	li	a5,5
8001009c:	d2078753          	fcvt.d.w	fa4,a5
800100a0:	a2f72553          	feq.d	a0,fa4,fa5
800100a4:	00154513          	xori	a0,a0,1
800100a8:	00008067          	ret

Disassembly of section .sdata:

800100b0 <__bss_end-0x8>:
800100b0:	0000                	unimp
800100b2:	0000                	unimp
800100b4:	0000                	unimp
800100b6:	3ff0                	fld	fa2,248(a5)

Disassembly of section .comment:

00000000 <.comment>:
   0:	3a434347          	fmsub.d	ft6,ft6,ft4,ft7,rmm
   4:	2820                	fld	fs0,80(s0)
   6:	29554e47          	fmsub.s	ft8,fa0,fs5,ft5,rmm
   a:	3120                	fld	fs0,96(a0)
   c:	2e30                	fld	fa2,88(a2)
   e:	2e31                	jal	32a <l1_alloc_base+0x31a>
  10:	0030                	addi	a2,sp,8

Disassembly of section .riscv.attributes:

00000000 <.riscv.attributes>:
   0:	2f41                	jal	790 <l1_alloc_base+0x780>
   2:	0000                	unimp
   4:	7200                	flw	fs0,32(a2)
   6:	7369                	lui	t1,0xffffa
   8:	01007663          	bgeu	zero,a6,14 <l1_alloc_base+0x4>
   c:	0025                	c.nop	9
   e:	0000                	unimp
  10:	1004                	addi	s1,sp,32
  12:	7205                	lui	tp,0xfffe1
  14:	3376                	fld	ft6,376(sp)
  16:	6932                	flw	fs2,12(sp)
  18:	7032                	flw	ft0,44(sp)
  1a:	5f30                	lw	a2,120(a4)
  1c:	326d                	jal	fffff9c6 <fake_uart+0x3ffff9c6>
  1e:	3070                	fld	fa2,224(s0)
  20:	615f 7032 5f30      	0x5f307032615f
  26:	3266                	fld	ft4,120(sp)
  28:	3070                	fld	fa2,224(s0)
  2a:	645f 7032 0030      	0x307032645f
