
bin/matmul_ssr_frep:     file format elf32-littleriscv


Disassembly of section .l1:

00000000 <input_size>:
   0:	0010                	0x10
   2:	0000                	unimp
   4:	0000                	unimp
	...

00000008 <output_checksum>:
   8:	0cc4                	addi	s1,sp,596
   a:	278d                	jal	76c <l1_alloc_base+0x6dc>
   c:	c42a                	sw	a0,8(sp)
   e:	9fc7414b          	fnmsub.q	ft2,fa4,ft8,fs3,rmm
  12:	6ca8                	flw	fa0,88(s1)
  14:	ecb2                	fsw	fa2,88(sp)
  16:	4160                	lw	s0,68(a0)
  18:	fc5d                	bnez	s0,ffffffd6 <fake_uart+0x3fffffd6>
  1a:	4f6d                	li	t5,27
  1c:	e85a                	fsw	fs6,16(sp)
  1e:	416a                	lw	sp,152(sp)
  20:	ac7a                	fsd	ft10,24(sp)
  22:	1919                	addi	s2,s2,-26
  24:	7201                	lui	tp,0xfffe0
  26:	4172                	lw	sp,28(sp)
  28:	5ac5                	li	s5,-15
  2a:	0a7c                	addi	a5,sp,284
  2c:	6fd5                	lui	t6,0x15
  2e:	09104177          	0x9104177
  32:	fbdf 6da8 417c      	0x417c6da8fbdf
  38:	dbae                	sw	a1,244(sp)
  3a:	76a0                	flw	fs0,104(a3)
  3c:	b5be                	fsd	fa5,232(sp)
  3e:	4180                	lw	s0,0(a1)
  40:	32d2                	fld	ft5,304(sp)
  42:	6f52                	flw	ft10,20(sp)
  44:	34a8                	fld	fa0,104(s1)
  46:	89f84183          	lbu	gp,-1889(a6)
  4a:	b3926803          	0xb3926803
  4e:	4185                	li	gp,1
  50:	e11e                	fsw	ft7,128(sp)
  52:	60b4                	flw	fa3,64(s1)
  54:	327c                	fld	fa5,224(a2)
  56:	4188                	lw	a0,0(a1)
  58:	59663843          	fmadd.s	fa6,fa2,fs6,fa1,rup
  5c:	b166                	fsd	fs9,160(sp)
  5e:	418a                	lw	gp,128(sp)
  60:	8f69                	and	a4,a4,a0
  62:	30505217          	auipc	tp,0x30505
  66:	418d                	li	gp,3
  68:	e68e                	fsw	ft3,76(sp)
  6a:	4ac8                	lw	a0,20(a3)
  6c:	af3a                	fsd	fa4,408(sp)
  6e:	1eda418f          	0x1eda418f
  72:	21bd                	jal	4e0 <l1_alloc_base+0x450>
  74:	1712                	slli	a4,a4,0x24
  76:	4191                	li	gp,4
  78:	ca6c                	sw	a1,84(a2)
  7a:	1e15                	addi	t3,t3,-27
  7c:	41925687          	0x41925687
  80:	75ff                	0x75ff
  82:	1a6e                	slli	s4,s4,0x3b
  84:	95fc                	0x95fc
  86:	          	xori	gp,zero,0

00000088 <atomic_barrier>:
  88:	0000                	unimp
	...

Disassembly of section .text:

80010000 <_start>:
80010000:	00001197          	auipc	gp,0x1
80010004:	c9018193          	addi	gp,gp,-880 # 80010c90 <__global_pointer$>
80010008:	0040006f          	j	8001000c <reset_vector>

8001000c <reset_vector>:
8001000c:	bfff0117          	auipc	sp,0xbfff0
80010010:	ffc10113          	addi	sp,sp,-4 # 40000008 <tcdm_end_address_reg>
80010014:	00012103          	lw	sp,0(sp)
80010018:	f1402573          	csrr	a0,mhartid
8001001c:	bfff0297          	auipc	t0,0xbfff0
80010020:	0242a283          	lw	t0,36(t0) # 40000040 <cluster_base_hart_id_reg>
80010024:	40550533          	sub	a0,a0,t0
80010028:	00351293          	slli	t0,a0,0x3
8001002c:	40510133          	sub	sp,sp,t0
80010030:	00629293          	slli	t0,t0,0x6
80010034:	40510133          	sub	sp,sp,t0
80010038:	00010213          	mv	tp,sp
8001003c:	00100293          	li	t0,1
80010040:	00929293          	slli	t0,t0,0x9
80010044:	40520233          	sub	tp,tp,t0
80010048:	bfff0297          	auipc	t0,0xbfff0
8001004c:	fc828293          	addi	t0,t0,-56 # 40000010 <nr_cores_address_reg>
80010050:	0002a583          	lw	a1,0(t0)
80010054:	1a0000ef          	jal	ra,800101f4 <main>
80010058:	00151513          	slli	a0,a0,0x1
8001005c:	00156513          	ori	a0,a0,1
80010060:	0100006f          	j	80010070 <eoc>

80010064 <fail>:
80010064:	fff00293          	li	t0,-1
80010068:	00554533          	xor	a0,a0,t0
8001006c:	0040006f          	j	80010070 <eoc>

80010070 <eoc>:
80010070:	f14022f3          	csrr	t0,mhartid
80010074:	00029863          	bnez	t0,80010084 <halt>
80010078:	bfff0297          	auipc	t0,0xbfff0
8001007c:	fa828293          	addi	t0,t0,-88 # 40000020 <scratch_reg>
80010080:	00a2a023          	sw	a0,0(t0)

80010084 <halt>:
80010084:	10500073          	wfi
80010088:	ffdff06f          	j	80010084 <halt>

8001008c <gemm_seq>:
8001008c:	ff010113          	addi	sp,sp,-16
80010090:	01012e03          	lw	t3,16(sp)
80010094:	00812623          	sw	s0,12(sp)
80010098:	00912423          	sw	s1,8(sp)
8001009c:	fff60293          	addi	t0,a2,-1
800100a0:	00381813          	slli	a6,a6,0x3
800100a4:	01029f93          	slli	t6,t0,0x10
800100a8:	01081313          	slli	t1,a6,0x10
800100ac:	010fdf93          	srli	t6,t6,0x10
800100b0:	01035313          	srli	t1,t1,0x10
800100b4:	03f30eb3          	mul	t4,t1,t6
800100b8:	0025d813          	srli	a6,a1,0x2
800100bc:	fff80813          	addi	a6,a6,-1
800100c0:	00205637          	lui	a2,0x205
800100c4:	fff50f13          	addi	t5,a0,-1
800100c8:	01081813          	slli	a6,a6,0x10
800100cc:	81f62823          	sw	t6,-2032(a2) # 204810 <ssr_config_reg+0x10>
800100d0:	01085813          	srli	a6,a6,0x10
800100d4:	003f9393          	slli	t2,t6,0x3
800100d8:	010f1f13          	slli	t5,t5,0x10
800100dc:	81062c23          	sw	a6,-2024(a2)
800100e0:	010f5f13          	srli	t5,t5,0x10
800100e4:	01039393          	slli	t2,t2,0x10
800100e8:	00371713          	slli	a4,a4,0x3
800100ec:	83e62023          	sw	t5,-2016(a2)
800100f0:	00800413          	li	s0,8
800100f4:	0103d393          	srli	t2,t2,0x10
800100f8:	01071713          	slli	a4,a4,0x10
800100fc:	82862823          	sw	s0,-2000(a2)
80010100:	407004b3          	neg	s1,t2
80010104:	01075713          	srli	a4,a4,0x10
80010108:	82962c23          	sw	s1,-1992(a2)
8001010c:	40770733          	sub	a4,a4,t2
80010110:	84e62023          	sw	a4,-1984(a2)
80010114:	00300713          	li	a4,3
80010118:	80e62423          	sw	a4,-2040(a2)
8001011c:	90e62823          	sw	a4,-1776(a2)
80010120:	018e8e93          	addi	t4,t4,24
80010124:	91f62c23          	sw	t6,-1768(a2)
80010128:	010e9e93          	slli	t4,t4,0x10
8001012c:	93062023          	sw	a6,-1760(a2)
80010130:	010ede93          	srli	t4,t4,0x10
80010134:	00581713          	slli	a4,a6,0x5
80010138:	93e62423          	sw	t5,-1752(a2)
8001013c:	00ee8733          	add	a4,t4,a4
80010140:	92862823          	sw	s0,-1744(a2)
80010144:	fe830313          	addi	t1,t1,-24
80010148:	02000813          	li	a6,32
8001014c:	01071713          	slli	a4,a4,0x10
80010150:	92662c23          	sw	t1,-1736(a2)
80010154:	41d80eb3          	sub	t4,a6,t4
80010158:	01075713          	srli	a4,a4,0x10
8001015c:	95d62023          	sw	t4,-1728(a2)
80010160:	40e00733          	neg	a4,a4
80010164:	94e62423          	sw	a4,-1720(a2)
80010168:	8cd62823          	sw	a3,-1840(a2)
8001016c:	9cf62c23          	sw	a5,-1576(a2)
80010170:	7c00e073          	csrsi	0x7c0,1
80010174:	06050463          	beqz	a0,800101dc <gemm_seq+0x150>
80010178:	00000613          	li	a2,0
8001017c:	00000693          	li	a3,0
80010180:	04058e63          	beqz	a1,800101dc <gemm_seq+0x150>
80010184:	00361793          	slli	a5,a2,0x3
80010188:	00f887b3          	add	a5,a7,a5
8001018c:	00000713          	li	a4,0
80010190:	0007b607          	fld	fa2,0(a5)
80010194:	0087b687          	fld	fa3,8(a5)
80010198:	0107b707          	fld	fa4,16(a5)
8001019c:	0187b787          	fld	fa5,24(a5)
800101a0:	0032808b          	0x32808b
800101a4:	62107643          	fmadd.d	fa2,ft0,ft1,fa2
800101a8:	6a1076c3          	fmadd.d	fa3,ft0,ft1,fa3
800101ac:	72107743          	fmadd.d	fa4,ft0,ft1,fa4
800101b0:	7a1077c3          	fmadd.d	fa5,ft0,ft1,fa5
800101b4:	00c7b027          	fsd	fa2,0(a5)
800101b8:	00d7b427          	fsd	fa3,8(a5)
800101bc:	00e7b827          	fsd	fa4,16(a5)
800101c0:	00f7bc27          	fsd	fa5,24(a5)
800101c4:	00470713          	addi	a4,a4,4
800101c8:	02078793          	addi	a5,a5,32
800101cc:	fcb762e3          	bltu	a4,a1,80010190 <gemm_seq+0x104>
800101d0:	00168693          	addi	a3,a3,1
800101d4:	01c60633          	add	a2,a2,t3
800101d8:	fad516e3          	bne	a0,a3,80010184 <gemm_seq+0xf8>
800101dc:	e0050053          	fmv.x.w	zero,fa0
800101e0:	7c00f073          	csrci	0x7c0,1
800101e4:	00c12403          	lw	s0,12(sp)
800101e8:	00812483          	lw	s1,8(sp)
800101ec:	01010113          	addi	sp,sp,16
800101f0:	00008067          	ret

Disassembly of section .text.startup:

800101f4 <main>:
800101f4:	fd010113          	addi	sp,sp,-48
800101f8:	03212023          	sw	s2,32(sp)
800101fc:	00000913          	li	s2,0
80010200:	00092603          	lw	a2,0(s2)
80010204:	02812423          	sw	s0,40(sp)
80010208:	02112623          	sw	ra,44(sp)
8001020c:	02912223          	sw	s1,36(sp)
80010210:	01312e23          	sw	s3,28(sp)
80010214:	00050413          	mv	s0,a0
80010218:	00058e93          	mv	t4,a1
8001021c:	00c5e463          	bltu	a1,a2,80010224 <main+0x30>
80010220:	00060e93          	mv	t4,a2
80010224:	00160813          	addi	a6,a2,1
80010228:	03060733          	mul	a4,a2,a6
8001022c:	09000693          	li	a3,144
80010230:	00170713          	addi	a4,a4,1
80010234:	00371713          	slli	a4,a4,0x3
80010238:	00e687b3          	add	a5,a3,a4
8001023c:	00e784b3          	add	s1,a5,a4
80010240:	0a041c63          	bnez	s0,800102f8 <main+0x104>
80010244:	06060663          	beqz	a2,800102b0 <main+0xbc>
80010248:	00381f13          	slli	t5,a6,0x3
8001024c:	00068e13          	mv	t3,a3
80010250:	00080893          	mv	a7,a6
80010254:	00000313          	li	t1,0
80010258:	00100513          	li	a0,1
8001025c:	00000717          	auipc	a4,0x0
80010260:	23473707          	fld	fa4,564(a4) # 80010490 <main+0x29c>
80010264:	000e0593          	mv	a1,t3
80010268:	00050713          	mv	a4,a0
8001026c:	d21707d3          	fcvt.d.wu	fa5,a4
80010270:	00858593          	addi	a1,a1,8
80010274:	00170713          	addi	a4,a4,1
80010278:	12e7f7d3          	fmul.d	fa5,fa5,fa4
8001027c:	fef5bc27          	fsd	fa5,-8(a1)
80010280:	ff1716e3          	bne	a4,a7,8001026c <main+0x78>
80010284:	00130313          	addi	t1,t1,1
80010288:	00c50533          	add	a0,a0,a2
8001028c:	00c708b3          	add	a7,a4,a2
80010290:	01ee0e33          	add	t3,t3,t5
80010294:	fc6618e3          	bne	a2,t1,80010264 <main+0x70>
80010298:	00100713          	li	a4,1
8001029c:	03d77733          	remu	a4,a4,t4
800102a0:	18070063          	beqz	a4,80010420 <main+0x22c>
800102a4:	00200713          	li	a4,2
800102a8:	03d77733          	remu	a4,a4,t4
800102ac:	06070863          	beqz	a4,8001031c <main+0x128>
800102b0:	bfff0997          	auipc	s3,0xbfff0
800102b4:	d8898993          	addi	s3,s3,-632 # 40000038 <barrier_reg>
800102b8:	0009a703          	lw	a4,0(s3)
800102bc:	00070013          	mv	zero,a4
800102c0:	b0002773          	csrr	a4,mcycle
800102c4:	13d46463          	bltu	s0,t4,800103ec <main+0x1f8>
800102c8:	b00027f3          	csrr	a5,mcycle
800102cc:	0009a983          	lw	s3,0(s3)
800102d0:	00098013          	mv	zero,s3
800102d4:	00000513          	li	a0,0
800102d8:	0a040063          	beqz	s0,80010378 <main+0x184>
800102dc:	02c12083          	lw	ra,44(sp)
800102e0:	02812403          	lw	s0,40(sp)
800102e4:	02412483          	lw	s1,36(sp)
800102e8:	02012903          	lw	s2,32(sp)
800102ec:	01c12983          	lw	s3,28(sp)
800102f0:	03010113          	addi	sp,sp,48
800102f4:	00008067          	ret
800102f8:	00100713          	li	a4,1
800102fc:	03d77733          	remu	a4,a4,t4
80010300:	10870a63          	beq	a4,s0,80010414 <main+0x220>
80010304:	00200713          	li	a4,2
80010308:	03d77733          	remu	a4,a4,t4
8001030c:	fa8712e3          	bne	a4,s0,800102b0 <main+0xbc>
80010310:	fa0600e3          	beqz	a2,800102b0 <main+0xbc>
80010314:	00000717          	auipc	a4,0x0
80010318:	17c73707          	fld	fa4,380(a4) # 80010490 <main+0x29c>
8001031c:	00000e13          	li	t3,0
80010320:	00300313          	li	t1,3
80010324:	00000513          	li	a0,0
80010328:	fff60f13          	addi	t5,a2,-1
8001032c:	003e1593          	slli	a1,t3,0x3
80010330:	00b485b3          	add	a1,s1,a1
80010334:	00000713          	li	a4,0
80010338:	006708b3          	add	a7,a4,t1
8001033c:	d21887d3          	fcvt.d.wu	fa5,a7
80010340:	00858593          	addi	a1,a1,8
80010344:	00170713          	addi	a4,a4,1
80010348:	12e7f7d3          	fmul.d	fa5,fa5,fa4
8001034c:	fef5bc27          	fsd	fa5,-8(a1)
80010350:	fec764e3          	bltu	a4,a2,80010338 <main+0x144>
80010354:	00000713          	li	a4,0
80010358:	00060463          	beqz	a2,80010360 <main+0x16c>
8001035c:	000f0713          	mv	a4,t5
80010360:	00170713          	addi	a4,a4,1
80010364:	00150513          	addi	a0,a0,1
80010368:	00e30333          	add	t1,t1,a4
8001036c:	010e0e33          	add	t3,t3,a6
80010370:	fac56ee3          	bltu	a0,a2,8001032c <main+0x138>
80010374:	f3dff06f          	j	800102b0 <main+0xbc>
80010378:	00092583          	lw	a1,0(s2)
8001037c:	06058463          	beqz	a1,800103e4 <main+0x1f0>
80010380:	ff800813          	li	a6,-8
80010384:	03058833          	mul	a6,a1,a6
80010388:	00158513          	addi	a0,a1,1
8001038c:	00351513          	slli	a0,a0,0x3
80010390:	ff850713          	addi	a4,a0,-8
80010394:	00800613          	li	a2,8
80010398:	00e48733          	add	a4,s1,a4
8001039c:	00000693          	li	a3,0
800103a0:	00000797          	auipc	a5,0x0
800103a4:	0f87b687          	fld	fa3,248(a5) # 80010498 <main+0x2a4>
800103a8:	d20007d3          	fcvt.d.w	fa5,zero
800103ac:	00e807b3          	add	a5,a6,a4
800103b0:	0007b707          	fld	fa4,0(a5)
800103b4:	00878793          	addi	a5,a5,8
800103b8:	02e7f7d3          	fadd.d	fa5,fa5,fa4
800103bc:	fef71ae3          	bne	a4,a5,800103b0 <main+0x1bc>
800103c0:	00063707          	fld	fa4,0(a2)
800103c4:	0ae7f7d3          	fsub.d	fa5,fa5,fa4
800103c8:	22f7a7d3          	fabs.d	fa5,fa5
800103cc:	a2f697d3          	flt.d	a5,fa3,fa5
800103d0:	00168693          	addi	a3,a3,1
800103d4:	00860613          	addi	a2,a2,8
800103d8:	00f40433          	add	s0,s0,a5
800103dc:	00a70733          	add	a4,a4,a0
800103e0:	fcd594e3          	bne	a1,a3,800103a8 <main+0x1b4>
800103e4:	00040513          	mv	a0,s0
800103e8:	ef5ff06f          	j	800102dc <main+0xe8>
800103ec:	03d65533          	divu	a0,a2,t4
800103f0:	00060593          	mv	a1,a2
800103f4:	02880333          	mul	t1,a6,s0
800103f8:	03d80733          	mul	a4,a6,t4
800103fc:	00331313          	slli	t1,t1,0x3
80010400:	006488b3          	add	a7,s1,t1
80010404:	006686b3          	add	a3,a3,t1
80010408:	00e12023          	sw	a4,0(sp)
8001040c:	c81ff0ef          	jal	ra,8001008c <gemm_seq>
80010410:	eb9ff06f          	j	800102c8 <main+0xd4>
80010414:	e8060ee3          	beqz	a2,800102b0 <main+0xbc>
80010418:	00000717          	auipc	a4,0x0
8001041c:	07873707          	fld	fa4,120(a4) # 80010490 <main+0x29c>
80010420:	00000e13          	li	t3,0
80010424:	00200313          	li	t1,2
80010428:	00000513          	li	a0,0
8001042c:	fff60f13          	addi	t5,a2,-1
80010430:	003e1593          	slli	a1,t3,0x3
80010434:	00b785b3          	add	a1,a5,a1
80010438:	00000713          	li	a4,0
8001043c:	006708b3          	add	a7,a4,t1
80010440:	d21887d3          	fcvt.d.wu	fa5,a7
80010444:	00858593          	addi	a1,a1,8
80010448:	00170713          	addi	a4,a4,1
8001044c:	12e7f7d3          	fmul.d	fa5,fa5,fa4
80010450:	fef5bc27          	fsd	fa5,-8(a1)
80010454:	fec764e3          	bltu	a4,a2,8001043c <main+0x248>
80010458:	00000713          	li	a4,0
8001045c:	00060463          	beqz	a2,80010464 <main+0x270>
80010460:	000f0713          	mv	a4,t5
80010464:	00170713          	addi	a4,a4,1
80010468:	00150513          	addi	a0,a0,1
8001046c:	00e30333          	add	t1,t1,a4
80010470:	010e0e33          	add	t3,t3,a6
80010474:	fac56ee3          	bltu	a0,a2,80010430 <main+0x23c>
80010478:	00200713          	li	a4,2
8001047c:	03d77733          	remu	a4,a4,t4
80010480:	e2e418e3          	bne	s0,a4,800102b0 <main+0xbc>
80010484:	e99ff06f          	j	8001031c <main+0x128>
