
bin/sdma_simple:	file format elf32-littleriscv


Disassembly of section .text:

80010000 <.text>:
80010000: 97 11 00 00  	auipc	gp, 1
80010004: 93 81 01 89  	addi	gp, gp, -1904
80010008: 6f 00 40 00  	j	0x8001000c <.text+0xc>
8001000c: 17 01 ff bf  	auipc	sp, 786416
80010010: 13 01 c1 ff  	addi	sp, sp, -4
80010014: 03 21 01 00  	lw	sp, 0(sp)
80010018: 73 25 40 f1  	csrr	a0, mhartid
8001001c: 97 02 ff bf  	auipc	t0, 786416
80010020: 83 a2 42 02  	lw	t0, 36(t0)
80010024: 33 05 55 40  	sub	a0, a0, t0
80010028: 93 12 35 00  	slli	t0, a0, 3
8001002c: 33 01 51 40  	sub	sp, sp, t0
80010030: 93 92 62 00  	slli	t0, t0, 6
80010034: 33 01 51 40  	sub	sp, sp, t0
80010038: 13 02 01 00  	mv	tp, sp
8001003c: 93 02 10 00  	addi	t0, zero, 1
80010040: 93 92 92 00  	slli	t0, t0, 9
80010044: 33 02 52 40  	sub	tp, tp, t0
80010048: 97 02 ff bf  	auipc	t0, 786416
8001004c: 93 82 82 fc  	addi	t0, t0, -56
80010050: 83 a5 02 00  	lw	a1, 0(t0)
80010054: 97 00 00 00  	auipc	ra, 0
80010058: e7 80 c0 03  	jalr	60(ra)
8001005c: 13 15 15 00  	slli	a0, a0, 1
80010060: 13 65 15 00  	ori	a0, a0, 1
80010064: 6f 00 00 01  	j	0x80010074 <.text+0x74>
80010068: 93 02 f0 ff  	addi	t0, zero, -1
8001006c: 33 45 55 00  	xor	a0, a0, t0
80010070: 6f 00 40 00  	j	0x80010074 <.text+0x74>
80010074: f3 22 40 f1  	csrr	t0, mhartid
80010078: 63 98 02 00  	bnez	t0, 0x80010088 <.text+0x88>
8001007c: 97 02 ff bf  	auipc	t0, 786416
80010080: 93 82 42 fa  	addi	t0, t0, -92
80010084: 23 a0 a2 00  	sw	a0, 0(t0)
80010088: 73 00 50 10  	wfi	
8001008c: 6f f0 df ff  	j	0x80010088 <.text+0x88>

Disassembly of section .text.main:

80010090 <.text.main>:
80010090: 17 05 00 00  	auipc	a0, 0
80010094: 13 05 85 61  	addi	a0, a0, 1560
80010098: 93 05 00 08  	addi	a1, zero, 128
8001009c: 13 06 00 00  	mv	a2, zero
800100a0: b3 06 a6 00  	add	a3, a2, a0
800100a4: 23 80 c6 00  	sb	a2, 0(a3)
800100a8: 13 06 16 00  	addi	a2, a2, 1
800100ac: e3 1a b6 fe  	bne	a2, a1, 0x800100a0 <.text.main+0x10>
800100b0: 97 08 00 00  	auipc	a7, 0
800100b4: 93 88 88 67  	addi	a7, a7, 1656
800100b8: 13 08 00 08  	addi	a6, zero, 128
800100bc: 93 76 d0 ff  	andi	a3, zero, -3
800100c0: 2b 00 05 00  	dmsrc	a0, zero
800100c4: 2b 80 08 02  	dmdst	a7, zero
800100c8: ab 06 d8 06  	dmcpy	a3, a6, a3
800100cc: ab 06 20 08  	dmstati	a3, 2
800100d0: e3 9e 06 fe  	bnez	a3, 0x800100cc <.text.main+0x3c>
800100d4: 93 06 00 00  	mv	a3, zero
800100d8: 13 07 00 00  	mv	a4, zero
800100dc: b3 87 a6 00  	add	a5, a3, a0
800100e0: 83 c7 07 00  	lbu	a5, 0(a5)
800100e4: 33 86 16 01  	add	a2, a3, a7
800100e8: 83 45 06 00  	lbu	a1, 0(a2)
800100ec: b3 c5 b7 00  	xor	a1, a5, a1
800100f0: b3 35 b0 00  	snez	a1, a1
800100f4: 33 07 b7 00  	add	a4, a4, a1
800100f8: 83 05 06 00  	lb	a1, 0(a2)
800100fc: 93 85 f5 ff  	addi	a1, a1, -1
80010100: 23 00 b6 00  	sb	a1, 0(a2)
80010104: 93 86 16 00  	addi	a3, a3, 1
80010108: e3 9a 06 fd  	bne	a3, a6, 0x800100dc <.text.main+0x4c>
8001010c: 13 08 00 08  	addi	a6, zero, 128
80010110: 93 76 d0 ff  	andi	a3, zero, -3
80010114: 2b 80 08 00  	dmsrc	a7, zero
80010118: 2b 00 05 02  	dmdst	a0, zero
8001011c: ab 06 d8 06  	dmcpy	a3, a6, a3
80010120: ab 06 20 08  	dmstati	a3, 2
80010124: e3 9e 06 fe  	bnez	a3, 0x80010120 <.text.main+0x90>
80010128: 93 06 00 00  	mv	a3, zero
8001012c: b3 85 a6 00  	add	a1, a3, a0
80010130: 83 c7 05 00  	lbu	a5, 0(a1)
80010134: 33 86 16 01  	add	a2, a3, a7
80010138: 03 46 06 00  	lbu	a2, 0(a2)
8001013c: 33 c6 c7 00  	xor	a2, a5, a2
80010140: 33 36 c0 00  	snez	a2, a2
80010144: 33 07 c7 00  	add	a4, a4, a2
80010148: 23 80 d5 00  	sb	a3, 0(a1)
8001014c: 93 86 16 00  	addi	a3, a3, 1
80010150: e3 9e 06 fd  	bne	a3, a6, 0x8001012c <.text.main+0x9c>
80010154: 13 08 40 00  	addi	a6, zero, 4
80010158: 93 06 80 00  	addi	a3, zero, 8
8001015c: 93 65 20 00  	ori	a1, zero, 2
80010160: 2b 00 05 00  	dmsrc	a0, zero
80010164: 2b 80 08 02  	dmdst	a7, zero
80010168: 2b 80 d6 0c  	dmstr	a3, a3
8001016c: 2b 00 08 0e  	dmrep	a6
80010170: ab 85 b6 06  	dmcpy	a1, a3, a1
80010174: ab 05 20 08  	dmstati	a1, 2
80010178: e3 9e 05 fe  	bnez	a1, 0x80010174 <.text.main+0xe4>
8001017c: 83 45 05 00  	lbu	a1, 0(a0)
80010180: 83 c7 08 00  	lbu	a5, 0(a7)
80010184: b3 c5 f5 00  	xor	a1, a1, a5
80010188: b3 35 b0 00  	snez	a1, a1
8001018c: b3 05 b7 00  	add	a1, a4, a1
80010190: 03 47 15 00  	lbu	a4, 1(a0)
80010194: 83 c7 18 00  	lbu	a5, 1(a7)
80010198: 33 47 f7 00  	xor	a4, a4, a5
8001019c: 33 37 e0 00  	snez	a4, a4
800101a0: b3 85 e5 00  	add	a1, a1, a4
800101a4: 03 47 25 00  	lbu	a4, 2(a0)
800101a8: 83 c7 28 00  	lbu	a5, 2(a7)
800101ac: 33 47 f7 00  	xor	a4, a4, a5
800101b0: 33 37 e0 00  	snez	a4, a4
800101b4: b3 85 e5 00  	add	a1, a1, a4
800101b8: 03 47 35 00  	lbu	a4, 3(a0)
800101bc: 83 c7 38 00  	lbu	a5, 3(a7)
800101c0: 33 47 f7 00  	xor	a4, a4, a5
800101c4: 33 37 e0 00  	snez	a4, a4
800101c8: b3 85 e5 00  	add	a1, a1, a4
800101cc: 03 47 45 00  	lbu	a4, 4(a0)
800101d0: 83 c7 48 00  	lbu	a5, 4(a7)
800101d4: 33 47 f7 00  	xor	a4, a4, a5
800101d8: 33 37 e0 00  	snez	a4, a4
800101dc: b3 85 e5 00  	add	a1, a1, a4
800101e0: 03 47 55 00  	lbu	a4, 5(a0)
800101e4: 83 c7 58 00  	lbu	a5, 5(a7)
800101e8: 33 47 f7 00  	xor	a4, a4, a5
800101ec: 33 37 e0 00  	snez	a4, a4
800101f0: b3 85 e5 00  	add	a1, a1, a4
800101f4: 03 47 65 00  	lbu	a4, 6(a0)
800101f8: 83 c7 68 00  	lbu	a5, 6(a7)
800101fc: 33 47 f7 00  	xor	a4, a4, a5
80010200: 33 37 e0 00  	snez	a4, a4
80010204: b3 85 e5 00  	add	a1, a1, a4
80010208: 03 47 75 00  	lbu	a4, 7(a0)
8001020c: 83 c7 78 00  	lbu	a5, 7(a7)
80010210: 33 47 f7 00  	xor	a4, a4, a5
80010214: 33 37 e0 00  	snez	a4, a4
80010218: b3 85 e5 00  	add	a1, a1, a4
8001021c: 03 47 85 00  	lbu	a4, 8(a0)
80010220: 83 c7 88 00  	lbu	a5, 8(a7)
80010224: 33 47 f7 00  	xor	a4, a4, a5
80010228: 33 37 e0 00  	snez	a4, a4
8001022c: b3 85 e5 00  	add	a1, a1, a4
80010230: 03 47 95 00  	lbu	a4, 9(a0)
80010234: 83 c7 98 00  	lbu	a5, 9(a7)
80010238: 33 47 f7 00  	xor	a4, a4, a5
8001023c: 33 37 e0 00  	snez	a4, a4
80010240: b3 85 e5 00  	add	a1, a1, a4
80010244: 03 47 a5 00  	lbu	a4, 10(a0)
80010248: 83 c7 a8 00  	lbu	a5, 10(a7)
8001024c: 33 47 f7 00  	xor	a4, a4, a5
80010250: 33 37 e0 00  	snez	a4, a4
80010254: b3 85 e5 00  	add	a1, a1, a4
80010258: 03 47 b5 00  	lbu	a4, 11(a0)
8001025c: 83 c7 b8 00  	lbu	a5, 11(a7)
80010260: 33 47 f7 00  	xor	a4, a4, a5
80010264: 33 37 e0 00  	snez	a4, a4
80010268: b3 85 e5 00  	add	a1, a1, a4
8001026c: 03 47 c5 00  	lbu	a4, 12(a0)
80010270: 83 c7 c8 00  	lbu	a5, 12(a7)
80010274: 33 47 f7 00  	xor	a4, a4, a5
80010278: 33 37 e0 00  	snez	a4, a4
8001027c: b3 85 e5 00  	add	a1, a1, a4
80010280: 03 47 d5 00  	lbu	a4, 13(a0)
80010284: 83 c7 d8 00  	lbu	a5, 13(a7)
80010288: 33 47 f7 00  	xor	a4, a4, a5
8001028c: 33 37 e0 00  	snez	a4, a4
80010290: b3 85 e5 00  	add	a1, a1, a4
80010294: 03 47 e5 00  	lbu	a4, 14(a0)
80010298: 83 c7 e8 00  	lbu	a5, 14(a7)
8001029c: 33 47 f7 00  	xor	a4, a4, a5
800102a0: 33 37 e0 00  	snez	a4, a4
800102a4: b3 85 e5 00  	add	a1, a1, a4
800102a8: 03 47 f5 00  	lbu	a4, 15(a0)
800102ac: 83 c7 f8 00  	lbu	a5, 15(a7)
800102b0: 33 47 f7 00  	xor	a4, a4, a5
800102b4: 33 37 e0 00  	snez	a4, a4
800102b8: b3 85 e5 00  	add	a1, a1, a4
800102bc: 03 47 05 01  	lbu	a4, 16(a0)
800102c0: 83 c7 08 01  	lbu	a5, 16(a7)
800102c4: 33 47 f7 00  	xor	a4, a4, a5
800102c8: 33 37 e0 00  	snez	a4, a4
800102cc: b3 85 e5 00  	add	a1, a1, a4
800102d0: 03 47 15 01  	lbu	a4, 17(a0)
800102d4: 83 c7 18 01  	lbu	a5, 17(a7)
800102d8: 33 47 f7 00  	xor	a4, a4, a5
800102dc: 33 37 e0 00  	snez	a4, a4
800102e0: b3 85 e5 00  	add	a1, a1, a4
800102e4: 03 47 25 01  	lbu	a4, 18(a0)
800102e8: 83 c7 28 01  	lbu	a5, 18(a7)
800102ec: 33 47 f7 00  	xor	a4, a4, a5
800102f0: 33 37 e0 00  	snez	a4, a4
800102f4: b3 85 e5 00  	add	a1, a1, a4
800102f8: 03 47 35 01  	lbu	a4, 19(a0)
800102fc: 83 c7 38 01  	lbu	a5, 19(a7)
80010300: 33 47 f7 00  	xor	a4, a4, a5
80010304: 33 37 e0 00  	snez	a4, a4
80010308: b3 85 e5 00  	add	a1, a1, a4
8001030c: 03 47 45 01  	lbu	a4, 20(a0)
80010310: 83 c7 48 01  	lbu	a5, 20(a7)
80010314: 33 47 f7 00  	xor	a4, a4, a5
80010318: 33 37 e0 00  	snez	a4, a4
8001031c: b3 85 e5 00  	add	a1, a1, a4
80010320: 03 47 55 01  	lbu	a4, 21(a0)
80010324: 83 c7 58 01  	lbu	a5, 21(a7)
80010328: 33 47 f7 00  	xor	a4, a4, a5
8001032c: 33 37 e0 00  	snez	a4, a4
80010330: b3 85 e5 00  	add	a1, a1, a4
80010334: 03 47 65 01  	lbu	a4, 22(a0)
80010338: 83 c7 68 01  	lbu	a5, 22(a7)
8001033c: 33 47 f7 00  	xor	a4, a4, a5
80010340: 33 37 e0 00  	snez	a4, a4
80010344: b3 85 e5 00  	add	a1, a1, a4
80010348: 03 47 75 01  	lbu	a4, 23(a0)
8001034c: 83 c7 78 01  	lbu	a5, 23(a7)
80010350: 33 47 f7 00  	xor	a4, a4, a5
80010354: 33 37 e0 00  	snez	a4, a4
80010358: b3 85 e5 00  	add	a1, a1, a4
8001035c: 03 47 85 01  	lbu	a4, 24(a0)
80010360: 83 c7 88 01  	lbu	a5, 24(a7)
80010364: 33 47 f7 00  	xor	a4, a4, a5
80010368: 33 37 e0 00  	snez	a4, a4
8001036c: b3 85 e5 00  	add	a1, a1, a4
80010370: 03 47 95 01  	lbu	a4, 25(a0)
80010374: 83 c7 98 01  	lbu	a5, 25(a7)
80010378: 33 47 f7 00  	xor	a4, a4, a5
8001037c: 33 37 e0 00  	snez	a4, a4
80010380: b3 85 e5 00  	add	a1, a1, a4
80010384: 03 47 a5 01  	lbu	a4, 26(a0)
80010388: 83 c7 a8 01  	lbu	a5, 26(a7)
8001038c: 33 47 f7 00  	xor	a4, a4, a5
80010390: 33 37 e0 00  	snez	a4, a4
80010394: b3 85 e5 00  	add	a1, a1, a4
80010398: 03 47 b5 01  	lbu	a4, 27(a0)
8001039c: 83 c7 b8 01  	lbu	a5, 27(a7)
800103a0: 33 47 f7 00  	xor	a4, a4, a5
800103a4: 33 37 e0 00  	snez	a4, a4
800103a8: b3 85 e5 00  	add	a1, a1, a4
800103ac: 03 47 c5 01  	lbu	a4, 28(a0)
800103b0: 83 c7 c8 01  	lbu	a5, 28(a7)
800103b4: 33 47 f7 00  	xor	a4, a4, a5
800103b8: 33 37 e0 00  	snez	a4, a4
800103bc: b3 85 e5 00  	add	a1, a1, a4
800103c0: 03 47 d5 01  	lbu	a4, 29(a0)
800103c4: 83 c7 d8 01  	lbu	a5, 29(a7)
800103c8: 33 47 f7 00  	xor	a4, a4, a5
800103cc: 33 37 e0 00  	snez	a4, a4
800103d0: b3 85 e5 00  	add	a1, a1, a4
800103d4: 03 47 e5 01  	lbu	a4, 30(a0)
800103d8: 83 c7 e8 01  	lbu	a5, 30(a7)
800103dc: 33 47 f7 00  	xor	a4, a4, a5
800103e0: 33 37 e0 00  	snez	a4, a4
800103e4: b3 85 e5 00  	add	a1, a1, a4
800103e8: 03 47 f5 01  	lbu	a4, 31(a0)
800103ec: 83 c7 f8 01  	lbu	a5, 31(a7)
800103f0: 33 47 f7 00  	xor	a4, a4, a5
800103f4: 33 37 e0 00  	snez	a4, a4
800103f8: 33 87 e5 00  	add	a4, a1, a4
800103fc: 93 05 00 02  	addi	a1, zero, 32
80010400: 93 07 00 01  	addi	a5, zero, 16
80010404: 13 66 20 00  	ori	a2, zero, 2
80010408: 2b 00 05 00  	dmsrc	a0, zero
8001040c: 2b 80 08 02  	dmdst	a7, zero
80010410: 2b 80 b7 0c  	dmstr	a5, a1
80010414: 2b 00 08 0e  	dmrep	a6
80010418: ab 85 c6 06  	dmcpy	a1, a3, a2
8001041c: ab 05 20 08  	dmstati	a1, 2
80010420: e3 9e 05 fe  	bnez	a1, 0x8001041c <.text.main+0x38c>
80010424: 83 45 05 00  	lbu	a1, 0(a0)
80010428: 03 c6 08 00  	lbu	a2, 0(a7)
8001042c: b3 c5 c5 00  	xor	a1, a1, a2
80010430: b3 35 b0 00  	snez	a1, a1
80010434: b3 05 b7 00  	add	a1, a4, a1
80010438: 03 46 15 00  	lbu	a2, 1(a0)
8001043c: 83 c6 18 00  	lbu	a3, 1(a7)
80010440: 33 46 d6 00  	xor	a2, a2, a3
80010444: 33 36 c0 00  	snez	a2, a2
80010448: b3 85 c5 00  	add	a1, a1, a2
8001044c: 03 46 25 00  	lbu	a2, 2(a0)
80010450: 83 c6 28 00  	lbu	a3, 2(a7)
80010454: 33 46 d6 00  	xor	a2, a2, a3
80010458: 33 36 c0 00  	snez	a2, a2
8001045c: b3 85 c5 00  	add	a1, a1, a2
80010460: 03 46 35 00  	lbu	a2, 3(a0)
80010464: 83 c6 38 00  	lbu	a3, 3(a7)
80010468: 33 46 d6 00  	xor	a2, a2, a3
8001046c: 33 36 c0 00  	snez	a2, a2
80010470: b3 85 c5 00  	add	a1, a1, a2
80010474: 03 46 45 00  	lbu	a2, 4(a0)
80010478: 83 c6 48 00  	lbu	a3, 4(a7)
8001047c: 33 46 d6 00  	xor	a2, a2, a3
80010480: 33 36 c0 00  	snez	a2, a2
80010484: b3 85 c5 00  	add	a1, a1, a2
80010488: 03 46 55 00  	lbu	a2, 5(a0)
8001048c: 83 c6 58 00  	lbu	a3, 5(a7)
80010490: 33 46 d6 00  	xor	a2, a2, a3
80010494: 33 36 c0 00  	snez	a2, a2
80010498: b3 85 c5 00  	add	a1, a1, a2
8001049c: 03 46 65 00  	lbu	a2, 6(a0)
800104a0: 83 c6 68 00  	lbu	a3, 6(a7)
800104a4: 33 46 d6 00  	xor	a2, a2, a3
800104a8: 33 36 c0 00  	snez	a2, a2
800104ac: b3 85 c5 00  	add	a1, a1, a2
800104b0: 03 46 75 00  	lbu	a2, 7(a0)
800104b4: 83 c6 78 00  	lbu	a3, 7(a7)
800104b8: 33 46 d6 00  	xor	a2, a2, a3
800104bc: 33 36 c0 00  	snez	a2, a2
800104c0: b3 85 c5 00  	add	a1, a1, a2
800104c4: 03 46 05 01  	lbu	a2, 16(a0)
800104c8: 83 c6 08 02  	lbu	a3, 32(a7)
800104cc: 33 46 d6 00  	xor	a2, a2, a3
800104d0: 33 36 c0 00  	snez	a2, a2
800104d4: b3 85 c5 00  	add	a1, a1, a2
800104d8: 03 46 15 01  	lbu	a2, 17(a0)
800104dc: 83 c6 18 02  	lbu	a3, 33(a7)
800104e0: 33 46 d6 00  	xor	a2, a2, a3
800104e4: 33 36 c0 00  	snez	a2, a2
800104e8: b3 85 c5 00  	add	a1, a1, a2
800104ec: 03 46 25 01  	lbu	a2, 18(a0)
800104f0: 83 c6 28 02  	lbu	a3, 34(a7)
800104f4: 33 46 d6 00  	xor	a2, a2, a3
800104f8: 33 36 c0 00  	snez	a2, a2
800104fc: b3 85 c5 00  	add	a1, a1, a2
80010500: 03 46 35 01  	lbu	a2, 19(a0)
80010504: 83 c6 38 02  	lbu	a3, 35(a7)
80010508: 33 46 d6 00  	xor	a2, a2, a3
8001050c: 33 36 c0 00  	snez	a2, a2
80010510: b3 85 c5 00  	add	a1, a1, a2
80010514: 03 46 45 01  	lbu	a2, 20(a0)
80010518: 83 c6 48 02  	lbu	a3, 36(a7)
8001051c: 33 46 d6 00  	xor	a2, a2, a3
80010520: 33 36 c0 00  	snez	a2, a2
80010524: b3 85 c5 00  	add	a1, a1, a2
80010528: 03 46 55 01  	lbu	a2, 21(a0)
8001052c: 83 c6 58 02  	lbu	a3, 37(a7)
80010530: 33 46 d6 00  	xor	a2, a2, a3
80010534: 33 36 c0 00  	snez	a2, a2
80010538: b3 85 c5 00  	add	a1, a1, a2
8001053c: 03 46 65 01  	lbu	a2, 22(a0)
80010540: 83 c6 68 02  	lbu	a3, 38(a7)
80010544: 33 46 d6 00  	xor	a2, a2, a3
80010548: 33 36 c0 00  	snez	a2, a2
8001054c: b3 85 c5 00  	add	a1, a1, a2
80010550: 03 46 75 01  	lbu	a2, 23(a0)
80010554: 83 c6 78 02  	lbu	a3, 39(a7)
80010558: 33 46 d6 00  	xor	a2, a2, a3
8001055c: 33 36 c0 00  	snez	a2, a2
80010560: b3 85 c5 00  	add	a1, a1, a2
80010564: 03 46 05 02  	lbu	a2, 32(a0)
80010568: 83 c6 08 04  	lbu	a3, 64(a7)
8001056c: 33 46 d6 00  	xor	a2, a2, a3
80010570: 33 36 c0 00  	snez	a2, a2
80010574: b3 85 c5 00  	add	a1, a1, a2
80010578: 03 46 15 02  	lbu	a2, 33(a0)
8001057c: 83 c6 18 04  	lbu	a3, 65(a7)
80010580: 33 46 d6 00  	xor	a2, a2, a3
80010584: 33 36 c0 00  	snez	a2, a2
80010588: b3 85 c5 00  	add	a1, a1, a2
8001058c: 03 46 25 02  	lbu	a2, 34(a0)
80010590: 83 c6 28 04  	lbu	a3, 66(a7)
80010594: 33 46 d6 00  	xor	a2, a2, a3
80010598: 33 36 c0 00  	snez	a2, a2
8001059c: b3 85 c5 00  	add	a1, a1, a2
800105a0: 03 46 35 02  	lbu	a2, 35(a0)
800105a4: 83 c6 38 04  	lbu	a3, 67(a7)
800105a8: 33 46 d6 00  	xor	a2, a2, a3
800105ac: 33 36 c0 00  	snez	a2, a2
800105b0: b3 85 c5 00  	add	a1, a1, a2
800105b4: 03 46 45 02  	lbu	a2, 36(a0)
800105b8: 83 c6 48 04  	lbu	a3, 68(a7)
800105bc: 33 46 d6 00  	xor	a2, a2, a3
800105c0: 33 36 c0 00  	snez	a2, a2
800105c4: b3 85 c5 00  	add	a1, a1, a2
800105c8: 03 46 55 02  	lbu	a2, 37(a0)
800105cc: 83 c6 58 04  	lbu	a3, 69(a7)
800105d0: 33 46 d6 00  	xor	a2, a2, a3
800105d4: 33 36 c0 00  	snez	a2, a2
800105d8: b3 85 c5 00  	add	a1, a1, a2
800105dc: 03 46 65 02  	lbu	a2, 38(a0)
800105e0: 83 c6 68 04  	lbu	a3, 70(a7)
800105e4: 33 46 d6 00  	xor	a2, a2, a3
800105e8: 33 36 c0 00  	snez	a2, a2
800105ec: b3 85 c5 00  	add	a1, a1, a2
800105f0: 03 46 75 02  	lbu	a2, 39(a0)
800105f4: 83 c6 78 04  	lbu	a3, 71(a7)
800105f8: 33 46 d6 00  	xor	a2, a2, a3
800105fc: 33 36 c0 00  	snez	a2, a2
80010600: b3 85 c5 00  	add	a1, a1, a2
80010604: 03 46 05 03  	lbu	a2, 48(a0)
80010608: 83 c6 08 06  	lbu	a3, 96(a7)
8001060c: 33 46 d6 00  	xor	a2, a2, a3
80010610: 33 36 c0 00  	snez	a2, a2
80010614: b3 85 c5 00  	add	a1, a1, a2
80010618: 03 46 15 03  	lbu	a2, 49(a0)
8001061c: 83 c6 18 06  	lbu	a3, 97(a7)
80010620: 33 46 d6 00  	xor	a2, a2, a3
80010624: 33 36 c0 00  	snez	a2, a2
80010628: b3 85 c5 00  	add	a1, a1, a2
8001062c: 03 46 25 03  	lbu	a2, 50(a0)
80010630: 83 c6 28 06  	lbu	a3, 98(a7)
80010634: 33 46 d6 00  	xor	a2, a2, a3
80010638: 33 36 c0 00  	snez	a2, a2
8001063c: b3 85 c5 00  	add	a1, a1, a2
80010640: 03 46 35 03  	lbu	a2, 51(a0)
80010644: 83 c6 38 06  	lbu	a3, 99(a7)
80010648: 33 46 d6 00  	xor	a2, a2, a3
8001064c: 33 36 c0 00  	snez	a2, a2
80010650: b3 85 c5 00  	add	a1, a1, a2
80010654: 03 46 45 03  	lbu	a2, 52(a0)
80010658: 83 c6 48 06  	lbu	a3, 100(a7)
8001065c: 33 46 d6 00  	xor	a2, a2, a3
80010660: 33 36 c0 00  	snez	a2, a2
80010664: b3 85 c5 00  	add	a1, a1, a2
80010668: 03 46 55 03  	lbu	a2, 53(a0)
8001066c: 83 c6 58 06  	lbu	a3, 101(a7)
80010670: 33 46 d6 00  	xor	a2, a2, a3
80010674: 33 36 c0 00  	snez	a2, a2
80010678: b3 85 c5 00  	add	a1, a1, a2
8001067c: 03 46 65 03  	lbu	a2, 54(a0)
80010680: 83 c6 68 06  	lbu	a3, 102(a7)
80010684: 33 46 d6 00  	xor	a2, a2, a3
80010688: 33 36 c0 00  	snez	a2, a2
8001068c: b3 85 c5 00  	add	a1, a1, a2
80010690: 03 45 75 03  	lbu	a0, 55(a0)
80010694: 03 c6 78 06  	lbu	a2, 103(a7)
80010698: 33 45 c5 00  	xor	a0, a0, a2
8001069c: 33 35 a0 00  	snez	a0, a0
800106a0: 33 85 a5 00  	add	a0, a1, a0
800106a4: 67 80 00 00  	ret

Disassembly of section .bss.src_buf:

800106a8 <.bss.src_buf>:
...

Disassembly of section .bss.dst_buf:

80010728 <.bss.dst_buf>:
...

Disassembly of section .comment:

00000000 <.comment>:
       0: 4c 69        	<unknown>
       2: 6e 6b        	<unknown>
       4: 65 72        	<unknown>
       6: 3a 20        	<unknown>
       8: 4c 4c        	<unknown>
       a: 44 20        	<unknown>
       c: 31 32        	<unknown>
       e: 2e 30        	<unknown>
      10: 2e 30        	<unknown>
      12: 00 00        	<unknown>
      14: 63 6c 61 6e  	bltu	sp, t1, 0x70c <.comment+0x70c>
      18: 67 20 76 65  	<unknown>
      1c: 72 73        	<unknown>
      1e: 69 6f        	<unknown>
      20: 6e 20        	<unknown>
      22: 31 32        	<unknown>
      24: 2e 30        	<unknown>
      26: 2e 30        	<unknown>
      28: 00           	<unknown>

Disassembly of section .riscv.attributes:

00000000 <.riscv.attributes>:
       0: 41 36        	<unknown>
       2: 00 00        	<unknown>
       4: 00 72        	<unknown>
       6: 69 73        	<unknown>
       8: 63 76 00 01  	bgeu	zero, a6, 0x14 <.riscv.attributes+0x14>
       c: 2c 00        	<unknown>
       e: 00 00        	<unknown>
      10: 04 10        	<unknown>
      12: 05 72        	<unknown>
      14: 76 33        	<unknown>
      16: 32 69        	<unknown>
      18: 32 70        	<unknown>
      1a: 30 5f        	<unknown>
      1c: 6d 32        	<unknown>
      1e: 70 30        	<unknown>
      20: 5f 61 32 70  	<unknown>
      24: 30 5f        	<unknown>
      26: 66 32        	<unknown>
      28: 70 30        	<unknown>
      2a: 5f 64 32 70  	<unknown>
      2e: 30 5f        	<unknown>
      30: 7a 66        	<unknown>
      32: 68 30        	<unknown>
      34: 70 31        	<unknown>
      36: 00           	<unknown>

Disassembly of section .shstrtab:

00000000 <.shstrtab>:
       0: 00 2e        	<unknown>
       2: 74 65        	<unknown>
       4: 78 74        	<unknown>
       6: 00 2e        	<unknown>
       8: 63 6f 6d 6d  	bltu	s10, s6, 0x6e6 <.shstrtab+0x6e6>
       c: 65 6e        	<unknown>
       e: 74 00        	<unknown>
      10: 2e 72        	<unknown>
      12: 69 73        	<unknown>
      14: 63 76 2e 61  	bgeu	t3, s2, 0x620 <.shstrtab+0x620>
      18: 74 74        	<unknown>
      1a: 72 69        	<unknown>
      1c: 62 75        	<unknown>
      1e: 74 65        	<unknown>
      20: 73 00 2e 74  	<unknown>
      24: 65 78        	<unknown>
      26: 74 2e        	<unknown>
      28: 6d 61        	<unknown>
      2a: 69 6e        	<unknown>
      2c: 00 2e        	<unknown>
      2e: 62 73        	<unknown>
      30: 73 2e 64 73  	csrrs	t3, 1846, s0
      34: 74 5f        	<unknown>
      36: 62 75        	<unknown>
      38: 66 00        	<unknown>
      3a: 2e 62        	<unknown>
      3c: 73 73 2e 73  	csrrci	t1, 1842, 28
      40: 72 63        	<unknown>
      42: 5f 62 75 66  	<unknown>
      46: 00 2e        	<unknown>
      48: 73 68 73 74  	csrrsi	a6, 1863, 6
      4c: 72 74        	<unknown>
      4e: 61 62        	<unknown>
      50: 00 2e        	<unknown>
      52: 73 64 61 74  	csrrsi	s0, 1862, 2
      56: 61 00        	<unknown>
